(dp1
S'Metropolis_B_CrII_adaptive_scale_factor'
p2
(dp3
I0
cnumpy.core.multiarray
_reconstruct
p4
(cnumpy
ndarray
p5
(I0
tS'b'
tRp6
(I1
(I0
tcnumpy
dtype
p7
(S'f8'
I0
I1
tRp8
(I3
S'<'
NNNI-1
I-1
I0
tbI00
S''
tbssS'N_FeII'
p9
(dp10
I0
g4
(g5
(I0
tS'b'
tRp11
(I1
(I0
tg8
I00
S''
tbssS'Metropolis_B_OIa_adaptive_scale_factor'
p12
(dp13
I0
g4
(g5
(I0
tS'b'
tRp14
(I1
(I0
tg8
I00
S''
tbssS'B_ZnII'
p15
(dp16
I0
g4
(g5
(I0
tS'b'
tRp17
(I1
(I0
tg8
I00
S''
tbssS'N_AsII'
p18
(dp19
I0
g4
(g5
(I0
tS'b'
tRp20
(I1
(I0
tg8
I00
S''
tbssS'B_FeII'
p21
(dp22
I0
g4
(g5
(I0
tS'b'
tRp23
(I1
(I0
tg8
I00
S''
tbssS'B_OIa'
p24
(dp25
I0
g4
(g5
(I0
tS'b'
tRp26
(I1
(I0
tg8
I00
S''
tbssS'B_SiII'
p27
(dp28
I0
g4
(g5
(I0
tS'b'
tRp29
(I1
(I0
tg8
I00
S''
tbssS'Metropolis_A_Z_OIa_adaptive_scale_factor'
p30
(dp31
I0
g4
(g5
(I0
tS'b'
tRp32
(I1
(I0
tg8
I00
S''
tbssS'N_CrII'
p33
(dp34
I0
g4
(g5
(I0
tS'b'
tRp35
(I1
(I0
tg8
I00
S''
tbssS'B_CII'
p36
(dp37
I0
g4
(g5
(I0
tS'b'
tRp38
(I1
(I0
tg8
I00
S''
tbssS'Metropolis_N_ArI_adaptive_scale_factor'
p39
(dp40
I0
g4
(g5
(I0
tS'b'
tRp41
(I1
(I0
tg8
I00
S''
tbssS'Metropolis_N_FeII_adaptive_scale_factor'
p42
(dp43
I0
g4
(g5
(I0
tS'b'
tRp44
(I1
(I0
tg8
I00
S''
tbssS'A_Z_HI'
p45
(dp46
I0
g4
(g5
(I0
tS'b'
tRp47
(I1
(I0
tg8
I00
S''
tbssS'N_OIa'
p48
(dp49
I0
g4
(g5
(I0
tS'b'
tRp50
(I1
(I0
tg8
I00
S''
tbssS'N_SIV'
p51
(dp52
I0
g4
(g5
(I0
tS'b'
tRp53
(I1
(I0
tg8
I00
S''
tbssS'Metropolis_A_Z_NII_adaptive_scale_factor'
p54
(dp55
I0
g4
(g5
(I0
tS'b'
tRp56
(I1
(I0
tg8
I00
S''
tbssS'A_Z_CIII'
p57
(dp58
I0
g4
(g5
(I0
tS'b'
tRp59
(I1
(I0
tg8
I00
S''
tbssS'Metropolis_N_SiII_adaptive_scale_factor'
p60
(dp61
I0
g4
(g5
(I0
tS'b'
tRp62
(I1
(I0
tg8
I00
S''
tbssS'N_FeIIb'
p63
(dp64
I0
g4
(g5
(I0
tS'b'
tRp65
(I1
(I0
tg8
I00
S''
tbssS'N_FeIIa'
p66
(dp67
I0
g4
(g5
(I0
tS'b'
tRp68
(I1
(I0
tg8
I00
S''
tbssS'deviance'
p69
(dp70
I0
g4
(g5
(I0
tS'b'
tRp71
(I1
(I0
tg8
I00
S''
tbssS'A_Z_CrIII'
p72
(dp73
I0
g4
(g5
(I0
tS'b'
tRp74
(I1
(I0
tg8
I00
S''
tbssS'Metropolis_N_CIII_adaptive_scale_factor'
p75
(dp76
I0
g4
(g5
(I0
tS'b'
tRp77
(I1
(I0
tg8
I00
S''
tbssS'A_Z_ZnII'
p78
(dp79
I0
g4
(g5
(I0
tS'b'
tRp80
(I1
(I0
tg8
I00
S''
tbssS'Metropolis_N_ZnII_adaptive_scale_factor'
p81
(dp82
I0
g4
(g5
(I0
tS'b'
tRp83
(I1
(I0
tg8
I00
S''
tbssS'A_Z_FeII'
p84
(dp85
I0
g4
(g5
(I0
tS'b'
tRp86
(I1
(I0
tg8
I00
S''
tbssS'Metropolis_A_Z_FeIIb_adaptive_scale_factor'
p87
(dp88
I0
g4
(g5
(I0
tS'b'
tRp89
(I1
(I0
tg8
I00
S''
tbssS'Metropolis_A_Z_adaptive_scale_factor'
p90
(dp91
I0
g4
(g5
(I0
tS'b'
tRp92
(I1
(I0
tg8
I00
S''
tbssS'Metropolis_B_NII_adaptive_scale_factor'
p93
(dp94
I0
g4
(g5
(I0
tS'b'
tRp95
(I1
(I0
tg8
I00
S''
tbssS'Metropolis_N_NiII_adaptive_scale_factor'
p96
(dp97
I0
g4
(g5
(I0
tS'b'
tRp98
(I1
(I0
tg8
I00
S''
tbssS'Metropolis_A_Z_OI_adaptive_scale_factor'
p99
(dp100
I0
g4
(g5
(I0
tS'b'
tRp101
(I1
(I0
tg8
I00
S''
tbssS'A_Z_AsII'
p102
(dp103
I0
g4
(g5
(I0
tS'b'
tRp104
(I1
(I0
tg8
I00
S''
tbssS'N_NiII'
p105
(dp106
I0
g4
(g5
(I0
tS'b'
tRp107
(I1
(I0
tg8
I00
S''
tbssS'B_NII'
p108
(dp109
I0
g4
(g5
(I0
tS'b'
tRp110
(I1
(I0
tg8
I00
S''
tbssS'Metropolis_N_SIV_adaptive_scale_factor'
p111
(dp112
I0
g4
(g5
(I0
tS'b'
tRp113
(I1
(I0
tg8
I00
S''
tbssS'TEMP'
p114
(dp115
I0
g4
(g5
(I0
tS'b'
tRp116
(I1
(I0
tg8
I00
S''
tbssS'Metropolis_B_ArI_adaptive_scale_factor'
p117
(dp118
I0
g4
(g5
(I0
tS'b'
tRp119
(I1
(I0
tg8
I00
S''
tbssS'A_Z_CrII'
p120
(dp121
I0
g4
(g5
(I0
tS'b'
tRp122
(I1
(I0
tg8
I00
S''
tbssS'Metropolis_N_CII_adaptive_scale_factor'
p123
(dp124
I0
g4
(g5
(I0
tS'b'
tRp125
(I1
(I0
tg8
I00
S''
tbssS'A_Z_ArI'
p126
(dp127
I0
g4
(g5
(I0
tS'b'
tRp128
(I1
(I0
tg8
I00
S''
tbssS'Metropolis_N_CrIII_adaptive_scale_factor'
p129
(dp130
I0
g4
(g5
(I0
tS'b'
tRp131
(I1
(I0
tg8
I00
S''
tbssS'A_Z'
p132
(dp133
I0
g4
(g5
(I0
tS'b'
tRp134
(I1
(I0
tg8
I00
S''
tbssS'Metropolis_B_ZnII_adaptive_scale_factor'
p135
(dp136
I0
g4
(g5
(I0
tS'b'
tRp137
(I1
(I0
tg8
I00
S''
tbssS'B_SIV'
p138
(dp139
I0
g4
(g5
(I0
tS'b'
tRp140
(I1
(I0
tg8
I00
S''
tbssS'A_Z_CII'
p141
(dp142
I0
g4
(g5
(I0
tS'b'
tRp143
(I1
(I0
tg8
I00
S''
tbssS'Metropolis_N_CrII_adaptive_scale_factor'
p144
(dp145
I0
g4
(g5
(I0
tS'b'
tRp146
(I1
(I0
tg8
I00
S''
tbssS'B_AsII'
p147
(dp148
I0
g4
(g5
(I0
tS'b'
tRp149
(I1
(I0
tg8
I00
S''
tbssS'Metropolis_B_SIV_adaptive_scale_factor'
p150
(dp151
I0
g4
(g5
(I0
tS'b'
tRp152
(I1
(I0
tg8
I00
S''
tbssS'H2'
p153
(dp154
I0
g4
(g5
(I0
tS'b'
tRp155
(I1
(I0
I1931
tg8
I00
S''
tbssS'Metropolis_A_Z_CrIII_adaptive_scale_factor'
p156
(dp157
I0
g4
(g5
(I0
tS'b'
tRp158
(I1
(I0
tg8
I00
S''
tbssS'Metropolis_N_AsII_adaptive_scale_factor'
p159
(dp160
I0
g4
(g5
(I0
tS'b'
tRp161
(I1
(I0
tg8
I00
S''
tbssS'Metropolis_N_FeIIb_adaptive_scale_factor'
p162
(dp163
I0
g4
(g5
(I0
tS'b'
tRp164
(I1
(I0
tg8
I00
S''
tbssS'Metropolis_A_Z_HI_adaptive_scale_factor'
p165
(dp166
I0
g4
(g5
(I0
tS'b'
tRp167
(I1
(I0
tg8
I00
S''
tbssS'A_Z_OI'
p168
(dp169
I0
g4
(g5
(I0
tS'b'
tRp170
(I1
(I0
tg8
I00
S''
tbssS'B_OI'
p171
(dp172
I0
g4
(g5
(I0
tS'b'
tRp173
(I1
(I0
tg8
I00
S''
tbssS'N_SiII'
p174
(dp175
I0
g4
(g5
(I0
tS'b'
tRp176
(I1
(I0
tg8
I00
S''
tbssS'B_FeIIb'
p177
(dp178
I0
g4
(g5
(I0
tS'b'
tRp179
(I1
(I0
tg8
I00
S''
tbssS'B_FeIIa'
p180
(dp181
I0
g4
(g5
(I0
tS'b'
tRp182
(I1
(I0
tg8
I00
S''
tbssS'A_Z_NiII'
p183
(dp184
I0
g4
(g5
(I0
tS'b'
tRp185
(I1
(I0
tg8
I00
S''
tbssS'Metropolis_N_NII_adaptive_scale_factor'
p186
(dp187
I0
g4
(g5
(I0
tS'b'
tRp188
(I1
(I0
tg8
I00
S''
tbssS'Metropolis_B_OI_adaptive_scale_factor'
p189
(dp190
I0
g4
(g5
(I0
tS'b'
tRp191
(I1
(I0
tg8
I00
S''
tbssS'N_ArI'
p192
(dp193
I0
g4
(g5
(I0
tS'b'
tRp194
(I1
(I0
tg8
I00
S''
tbssS'Metropolis_B_FeIIb_adaptive_scale_factor'
p195
(dp196
I0
g4
(g5
(I0
tS'b'
tRp197
(I1
(I0
tg8
I00
S''
tbssS'B'
(dp198
I0
g4
(g5
(I0
tS'b'
tRp199
(I1
(I0
tg8
I00
S''
tbssS'B_HI'
p200
(dp201
I0
g4
(g5
(I0
tS'b'
tRp202
(I1
(I0
tg8
I00
S''
tbssS'Metropolis_NTOTH2_adaptive_scale_factor'
p203
(dp204
I0
g4
(g5
(I0
tS'b'
tRp205
(I1
(I0
tg8
I00
S''
tbssS'_state_'
p206
(dp207
S'stochastics'
p208
(dp209
g171
g4
(g5
(I0
tS'b'
tRp210
(I1
(tg8
I00
S'\xe8\xb3w]\x1b\xbb<@'
tbsg174
g4
(g5
(I0
tS'b'
tRp211
(I1
(tg8
I00
S'S\xe6wA\xbaW\xf7?'
tbsg9
g4
(g5
(I0
tS'b'
tRp212
(I1
(tg8
I00
S'\xdf\x18\x9c\r\xe8\xb3.@'
tbsg84
g4
(g5
(I0
tS'b'
tRp213
(I1
(tg8
I00
S'\xc8\xef\xc1\r\xdf$/@'
tbsg177
g4
(g5
(I0
tS'b'
tRp214
(I1
(tg8
I00
S'\xf5\x1a\x00\xa6\xab\xe8\x1b@'
tbsg180
g4
(g5
(I0
tS'b'
tRp215
(I1
(tg8
I00
S'\x9c8\xd8\xf0\xe2}%@'
tbsS'A_Z_SiII'
p216
g4
(g5
(I0
tS'b'
tRp217
(I1
(tg8
I00
S'\xb1\x8e\xf0\x97Me\xea\xbf'
tbsg66
g4
(g5
(I0
tS'b'
tRp218
(I1
(tg8
I00
S'\x86SZ\xf2\xdd\x02+@'
tbsg183
g4
(g5
(I0
tS'b'
tRp219
(I1
(tg8
I00
S"\x85\x91\xad\x17T\x8a'@"
tbsg15
g4
(g5
(I0
tS'b'
tRp220
(I1
(tg8
I00
S'\x00\xd93\xde\xcc\xff\x96?'
tbsg102
g4
(g5
(I0
tS'b'
tRp221
(I1
(tg8
I00
S'\xd2\xb8\xb4\xdf\xcd\xdf\xeb\xbf'
tbsg18
g4
(g5
(I0
tS'b'
tRp222
(I1
(tg8
I00
S'\x84l*5J\xcf1@'
tbsg105
g4
(g5
(I0
tS'b'
tRp223
(I1
(tg8
I00
S'}\xb1P\\\xa9\xe3+@'
tbsg108
g4
(g5
(I0
tS'b'
tRp224
(I1
(tg8
I00
S'\x18\x829\x9b\x87W\x19@'
tbsg21
g4
(g5
(I0
tS'b'
tRp225
(I1
(tg8
I00
S'\x15\x00[\xcfN\xae/@'
tbsS'N_CII'
p226
g4
(g5
(I0
tS'b'
tRp227
(I1
(tg8
I00
S'\x00\x00\x00\x00\x00\x000@'
tbsg114
g4
(g5
(I0
tS'b'
tRp228
(I1
(tg8
I00
S'y~;\xab\x08\x91\x84@'
tbsg27
g4
(g5
(I0
tS'b'
tRp229
(I1
(tg8
I00
S'mc\xdcj\xb0Y5@'
tbsS'B_CrII'
p230
g4
(g5
(I0
tS'b'
tRp231
(I1
(tg8
I00
S'\xb0EW\x01\xfc8\x11@'
tbsg24
g4
(g5
(I0
tS'b'
tRp232
(I1
(tg8
I00
S'(q:8\xc8\x06(@'
tbsg120
g4
(g5
(I0
tS'b'
tRp233
(I1
(tg8
I00
S'\x80\x93\xf3\xd7\xf7#\x1d@'
tbsS'B_ArI'
p234
g4
(g5
(I0
tS'b'
tRp235
(I1
(tg8
I00
S'^\r\xcf(\x06@\x00@'
tbsg192
g4
(g5
(I0
tS'b'
tRp236
(I1
(tg8
I00
S'\xf0S\xf8\xfd#32@'
tbsg126
g4
(g5
(I0
tS'b'
tRp237
(I1
(tg8
I00
S'`|:\xf5\x9b\x05\x94?'
tbsg45
g4
(g5
(I0
tS'b'
tRp238
(I1
(tg8
I00
S'\\\tIK\x86\x14;@'
tbsg33
g4
(g5
(I0
tS'b'
tRp239
(I1
(tg8
I00
S'\x97\x80\x92N\xdc\xde+@'
tbsg36
g4
(g5
(I0
tS'b'
tRp240
(I1
(tg8
I00
S'\x9dx\xa4_\xdf\xa5:@'
tbsS'B'
g4
(g5
(I0
tS'b'
tRp241
(I1
(tg8
I00
S'uJK|_z#@'
tbsg200
g4
(g5
(I0
tS'b'
tRp242
(I1
(tg8
I00
S'\x138\xd7\x00\x18\xe68@'
tbsS'N_HI'
p243
g4
(g5
(I0
tS'b'
tRp244
(I1
(tg8
I00
S'\xeeK# \xb0\x016@'
tbsS'B_CrIII'
p245
g4
(g5
(I0
tS'b'
tRp246
(I1
(tg8
I00
S"\xf4\xdc{u'\xc7\n@"
tbsg132
g4
(g5
(I0
tS'b'
tRp247
(I1
(tg8
I00
S'v\xaa\xb9\xd0\xcd\xdc\x05@'
tbsS'NTOTH2'
p248
g4
(g5
(I0
tS'b'
tRp249
(I1
(tg8
I00
S'e\xb0K\xaa\x10\xac0@'
tbsg138
g4
(g5
(I0
tS'b'
tRp250
(I1
(tg8
I00
S'\x0b#-\x90\xef$8@'
tbsg51
g4
(g5
(I0
tS'b'
tRp251
(I1
(tg8
I00
S'\x00\x00\x00\x00\x00\x000@'
tbsS'N_CIII'
p252
g4
(g5
(I0
tS'b'
tRp253
(I1
(tg8
I00
S'\xc2|\xa48>2\x10@'
tbsS'A_Z_SIV'
p254
g4
(g5
(I0
tS'b'
tRp255
(I1
(tg8
I00
S',\x05\x19\xe2\xc2\xb6\xf1?'
tbsg141
g4
(g5
(I0
tS'b'
tRp256
(I1
(tg8
I00
S'\xc3\x89\xdd28\xc7\x06\xc0'
tbsg57
g4
(g5
(I0
tS'b'
tRp257
(I1
(tg8
I00
S'\xeci^WQb\xfc\xbf'
tbsg147
g4
(g5
(I0
tS'b'
tRp258
(I1
(tg8
I00
S'\xfc4T\xa5\xa3\x945@'
tbsS'A_Z_NII'
p259
g4
(g5
(I0
tS'b'
tRp260
(I1
(tg8
I00
S'u\x82\x82\xa9\xc81\xf0\xbf'
tbsS'B_CIII'
p261
g4
(g5
(I0
tS'b'
tRp262
(I1
(tg8
I00
S'@)\xfd\xf8\xd9?,@'
tbsS'N_NII'
p263
g4
(g5
(I0
tS'b'
tRp264
(I1
(tg8
I00
S'+\x8aC\x07\xe5\xea @'
tbsg63
g4
(g5
(I0
tS'b'
tRp265
(I1
(tg8
I00
S'\x88\xae\x9a\xd7\xe0\xc4)@'
tbsS'N_CrIII'
p266
g4
(g5
(I0
tS'b'
tRp267
(I1
(tg8
I00
S'\x00\x00\x00\x00\x00\x000@'
tbsS'A_Z_FeIIa'
p268
g4
(g5
(I0
tS'b'
tRp269
(I1
(tg8
I00
S'\xc0*\xcc\x86\x10\xb5*@'
tbsg72
g4
(g5
(I0
tS'b'
tRp270
(I1
(tg8
I00
S'\x9c5\xab\xd7\xec\xa0\xf2\xbf'
tbsS'A_Z_OIa'
p271
g4
(g5
(I0
tS'b'
tRp272
(I1
(tg8
I00
S'\x19\xbb\xcc\x1c\xdd\x17/@'
tbsS'A_Z_FeIIb'
p273
g4
(g5
(I0
tS'b'
tRp274
(I1
(tg8
I00
S'\x1c7\xbf\xa9t\xde*@'
tbsS'N_ZnII'
p275
g4
(g5
(I0
tS'b'
tRp276
(I1
(tg8
I00
S'\x12}\xa4\xcc\xffN*@'
tbsg48
g4
(g5
(I0
tS'b'
tRp277
(I1
(tg8
I00
S'Q\xcc\xad#\xb2\xb7.@'
tbsg168
g4
(g5
(I0
tS'b'
tRp278
(I1
(tg8
I00
S'\xd7VS\xbc\x0c\xd2\x06\xc0'
tbsS'N_OI'
p279
g4
(g5
(I0
tS'b'
tRp280
(I1
(tg8
I00
S'\xee\x82X\x08\xcd\x073@'
tbsS'B_NiII'
p281
g4
(g5
(I0
tS'b'
tRp282
(I1
(tg8
I00
S'\xd8\xcb\x10\x95U\r3@'
tbsg78
g4
(g5
(I0
tS'b'
tRp283
(I1
(tg8
I00
S'\xd8p*\xfaPrV@'
tbssS'step_methods'
p284
(dp285
S'Metropolis_N_SIV'
p286
(dp287
S'adaptive_scale_factor'
p288
F1
sS'proposal_distribution'
p289
S'Normal'
p290
sS'proposal_sd'
p291
cnumpy.core.multiarray
scalar
p292
(g8
S'\x00\x00\x00\x00\x00\x000@'
tRp293
sS'accepted'
p294
F0
sS'check_before_accepting'
p295
I01
sS'rejected'
p296
F5
ssS'Metropolis_A_Z_NiII'
p297
(dp298
g288
F1
sg289
g290
sg291
g292
(g8
S'`\xa5\x08\xf15\xaf\x19@'
tRp299
sg294
F5
sg295
I01
sg296
F0
ssS'Metropolis_N_FeII'
p300
(dp301
g288
F1
sg289
g290
sg291
g292
(g8
S'\xdf\x18\x9c\r\xe8\xb3.@'
tRp302
sg294
F0
sg295
I01
sg296
F5
ssS'Metropolis_N_OI'
p303
(dp304
g288
F1
sg289
g290
sg291
g292
(g8
S'\x00\x00\x00\x00\x00\x000@'
tRp305
sg294
F1
sg295
I01
sg296
F3
ssS'Metropolis_N_CrII'
p306
(dp307
g288
F1
sg289
g290
sg291
g292
(g8
S'\x97\x80\x92N\xdc\xde+@'
tRp308
sg294
F0
sg295
I01
sg296
F5
ssS'Metropolis_A_Z_CIII'
p309
(dp310
g288
F1
sg289
g290
sg291
g292
(g8
S'\x00\x00\x00\x00\x00\x00\xf0?'
tRp311
sg294
F4
sg295
I01
sg296
F0
ssS'Metropolis_A_Z_CII'
p312
(dp313
g288
F1
sg289
g290
sg291
g292
(g8
S'\x00\x00\x00\x00\x00\x00\xf0?'
tRp314
sg294
F5
sg295
I01
sg296
F0
ssS'Metropolis_B_CrII'
p315
(dp316
g288
F1
sg289
g290
sg291
g292
(g8
S'd+j\xf7B\x0c0@'
tRp317
sg294
F2
sg295
I01
sg296
F3
ssS'Metropolis_A_Z'
p318
(dp319
g288
F1
sg289
g290
sg291
g292
(g8
S'\xa9<\x87\xd2\xf1a$@'
tRp320
sg294
F1
sg295
I01
sg296
F4
ssS'Metropolis_N_ArI'
p321
(dp322
g288
F1
sg289
g290
sg291
g292
(g8
S'\x00\x00\x00\x00\x00\x000@'
tRp323
sg294
F1
sg295
I01
sg296
F4
ssS'Metropolis_B_SiII'
p324
(dp325
g288
F1
sg289
g290
sg291
g292
(g8
S'\x00\x00\x00\x00\x00\x00 @'
tRp326
sg294
F4
sg295
I01
sg296
F1
ssS'Metropolis_TEMP'
p327
(dp328
g288
F1
sg289
g290
sg291
g292
(g8
S'\xec\xc0\x19di\xf5z@'
tRp329
sg294
F2
sg295
I01
sg296
F3
ssS'Metropolis_B_ArI'
p330
(dp331
g288
F1
sg289
g290
sg291
g292
(g8
S'\x00\x00\x00\x00\x00\x00 @'
tRp332
sg294
F2
sg295
I01
sg296
F3
ssS'Metropolis_N_NiII'
p333
(dp334
g288
F1
sg289
g290
sg291
g292
(g8
S'}\xb1P\\\xa9\xe3+@'
tRp335
sg294
F0
sg295
I01
sg296
F5
ssS'Metropolis_A_Z_HI'
p336
(dp337
g288
F1
sg289
g290
sg291
g292
(g8
S'\x8c\xc2\xa1\xf1\xe9\xc9=@'
tRp338
sg294
F4
sg295
I01
sg296
F0
ssS'Metropolis_A_Z_OI'
p339
(dp340
g288
F1
sg289
g290
sg291
g292
(g8
S'\x00\x00\x00\x00\x00\x00\xf0?'
tRp341
sg294
F3
sg295
I01
sg296
F1
ssS'Metropolis_B_CIII'
p342
(dp343
g288
F1
sg289
g290
sg291
g292
(g8
S'\x00\x00\x00\x00\x00\x00 @'
tRp344
sg294
F4
sg295
I01
sg296
F1
ssS'Metropolis_N_AsII'
p345
(dp346
g288
F1
sg289
g290
sg291
g292
(g8
S'\x00\x00\x00\x00\x00\x000@'
tRp347
sg294
F1
sg295
I01
sg296
F3
ssS'Metropolis_B_HI'
p348
(dp349
g288
F1
sg289
g290
sg291
g292
(g8
S'\xc8\xb9\xba\xe5}\x878@'
tRp350
sg294
F1
sg295
I01
sg296
F3
ssS'Metropolis_B_FeIIb'
p351
(dp352
g288
F1
sg289
g290
sg291
g292
(g8
S'>Z \x9a\xd7q\x1d@'
tRp353
sg294
F2
sg295
I01
sg296
F2
ssS'Metropolis_B_CrIII'
p354
(dp355
g288
F1
sg289
g290
sg291
g292
(g8
S'\x00\x00\x00\x00\x00\x00 @'
tRp356
sg294
F4
sg295
I01
sg296
F1
ssS'Metropolis_A_Z_ZnII'
p357
(dp358
g288
F1
sg289
g290
sg291
g292
(g8
S'\xe0\xc5\x97t\xe0\x9dQ@'
tRp359
sg294
F5
sg295
I01
sg296
F0
ssS'Metropolis_A_Z_ArI'
p360
(dp361
g288
F1
sg289
g290
sg291
g292
(g8
S'\x00\x00\x00\x00\x00\x00\xf0?'
tRp362
sg294
F4
sg295
I01
sg296
F0
ssS'Metropolis_A_Z_AsII'
p363
(dp364
g288
F1
sg289
g290
sg291
g292
(g8
S'\x00\x00\x00\x00\x00\x00\xf0?'
tRp365
sg294
F4
sg295
I01
sg296
F0
ssS'Metropolis_N_HI'
p366
(dp367
g288
F1
sg289
g290
sg291
g292
(g8
S'\xeeK# \xb0\x016@'
tRp368
sg294
F0
sg295
I01
sg296
F4
ssS'Metropolis_B_AsII'
p369
(dp370
g288
F1
sg289
g290
sg291
g292
(g8
S'\x00\x00\x00\x00\x00\x00 @'
tRp371
sg294
F4
sg295
I01
sg296
F0
ssS'Metropolis_B_FeII'
p372
(dp373
g288
F1
sg289
g290
sg291
g292
(g8
S'\xe4\xfe\x18\x0f\x10:\x17@'
tRp374
sg294
F3
sg295
I01
sg296
F1
ssS'Metropolis_B_ZnII'
p375
(dp376
g288
F1
sg289
g290
sg291
g292
(g8
S' V\xd2\xaf \xc5"@'
tRp377
sg294
F5
sg295
I01
sg296
F0
ssS'Metropolis_N_CrIII'
p378
(dp379
g288
F1
sg289
g290
sg291
g292
(g8
S'\x00\x00\x00\x00\x00\x000@'
tRp380
sg294
F0
sg295
I01
sg296
F4
ssS'Metropolis_A_Z_OIa'
p381
(dp382
g288
F1
sg289
g290
sg291
g292
(g8
S'\xd0\xaa\x80m\x07^(@'
tRp383
sg294
F4
sg295
I01
sg296
F1
ssS'Metropolis_B_FeIIa'
p384
(dp385
g288
F1
sg289
g290
sg291
g292
(g8
S'\x883\x8c\x95?\x91\x1a@'
tRp386
sg294
F3
sg295
I01
sg296
F2
ssS'Metropolis_A_Z_SiII'
p387
(dp388
g288
F1
sg289
g290
sg291
g292
(g8
S'\x00\x00\x00\x00\x00\x00\xf0?'
tRp389
sg294
F4
sg295
I01
sg296
F0
ssS'Metropolis_A_Z_FeIIa'
p390
(dp391
g288
F1
sg289
g290
sg291
g292
(g8
S'\x90X\xb7\xa9\xcb-.@'
tRp392
sg294
F3
sg295
I01
sg296
F1
ssS'Metropolis_N_OIa'
p393
(dp394
g288
F1
sg289
g290
sg291
g292
(g8
S'Q\xcc\xad#\xb2\xb7.@'
tRp395
sg294
F0
sg295
I01
sg296
F4
ssS'Metropolis_N_SiII'
p396
(dp397
g288
F1
sg289
g290
sg291
g292
(g8
S'\x00\x00\x00\x00\x00\x000@'
tRp398
sg294
F4
sg295
I01
sg296
F1
ssS'Metropolis_N_NII'
p399
(dp400
g288
F1
sg289
g290
sg291
g292
(g8
S'\x00\x00\x00\x00\x00\x000@'
tRp401
sg294
F2
sg295
I01
sg296
F2
ssS'Metropolis_B_OIa'
p402
(dp403
g288
F1
sg289
g290
sg291
g292
(g8
S']I\xa5\x1a(\x9d+@'
tRp404
sg294
F1
sg295
I01
sg296
F3
ssS'Metropolis_NTOTH2'
p405
(dp406
g288
F1
sg289
g290
sg291
g292
(g8
S'e\xb0K\xaa\x10\xac0@'
tRp407
sg294
F0
sg295
I01
sg296
F5
ssS'Metropolis_N_ZnII'
p408
(dp409
g288
F1
sg289
g290
sg291
g292
(g8
S'\x12}\xa4\xcc\xffN*@'
tRp410
sg294
F0
sg295
I01
sg296
F5
ssS'Metropolis_B_NII'
p411
(dp412
g288
F1
sg289
g290
sg291
g292
(g8
S'\x00\x00\x00\x00\x00\x00 @'
tRp413
sg294
F5
sg295
I01
sg296
F0
ssS'Metropolis_A_Z_FeIIb'
p414
(dp415
g288
F1
sg289
g290
sg291
g292
(g8
S'\xc8\x94\x93\x1f\rQ;@'
tRp416
sg294
F4
sg295
I01
sg296
F1
ssS'Metropolis_A_Z_CrII'
p417
(dp418
g288
F1
sg289
g290
sg291
g292
(g8
S"8\xff{'P\xceG@"
tRp419
sg294
F3
sg295
I01
sg296
F1
ssS'Metropolis_N_CIII'
p420
(dp421
g288
F1
sg289
g290
sg291
g292
(g8
S'\x00\x00\x00\x00\x00\x000@'
tRp422
sg294
F3
sg295
I01
sg296
F2
ssS'Metropolis_B_SIV'
p423
(dp424
g288
F1
sg289
g290
sg291
g292
(g8
S'\x00\x00\x00\x00\x00\x00 @'
tRp425
sg294
F2
sg295
I01
sg296
F3
ssS'Metropolis_A_Z_NII'
p426
(dp427
g288
F1
sg289
g290
sg291
g292
(g8
S'\x00\x00\x00\x00\x00\x00\xf0?'
tRp428
sg294
F4
sg295
I01
sg296
F0
ssS'Metropolis_B_NiII'
p429
(dp430
g288
F1
sg289
g290
sg291
g292
(g8
S'\xba\xe7r\xacv; @'
tRp431
sg294
F4
sg295
I01
sg296
F0
ssS'Metropolis_N_CII'
p432
(dp433
g288
F1
sg289
g290
sg291
g292
(g8
S'\x00\x00\x00\x00\x00\x000@'
tRp434
sg294
F0
sg295
I01
sg296
F5
ssS'Metropolis_B_CII'
p435
(dp436
g288
F1
sg289
g290
sg291
g292
(g8
S'\x00\x00\x00\x00\x00\x00 @'
tRp437
sg294
F4
sg295
I01
sg296
F1
ssS'Metropolis_N_FeIIb'
p438
(dp439
g288
F1
sg289
g290
sg291
g292
(g8
S'\x88\xae\x9a\xd7\xe0\xc4)@'
tRp440
sg294
F0
sg295
I01
sg296
F5
ssS'Metropolis_N_FeIIa'
p441
(dp442
g288
F1
sg289
g290
sg291
g292
(g8
S'\x86SZ\xf2\xdd\x02+@'
tRp443
sg294
F0
sg295
I01
sg296
F4
ssS'Metropolis_A_Z_CrIII'
p444
(dp445
g288
F1
sg289
g290
sg291
g292
(g8
S'\x00\x00\x00\x00\x00\x00\xf0?'
tRp446
sg294
F5
sg295
I01
sg296
F0
ssS'Metropolis_A_Z_SIV'
p447
(dp448
g288
F1
sg289
g290
sg291
g292
(g8
S'\x00\x00\x00\x00\x00\x00\xf0?'
tRp449
sg294
F4
sg295
I01
sg296
F0
ssS'Metropolis_B'
p450
(dp451
g288
F1
sg289
g290
sg291
g292
(g8
S'333333\x0b@'
tRp452
sg294
F1
sg295
I01
sg296
F4
ssS'Metropolis_A_Z_FeII'
p453
(dp454
g288
F1
sg289
g290
sg291
g292
(g8
S'$\x1f\x81H\xe6\x02N@'
tRp455
sg294
F2
sg295
I01
sg296
F3
ssS'Metropolis_B_OI'
p456
(dp457
g288
F1
sg289
g290
sg291
g292
(g8
S'\x00\x00\x00\x00\x00\x00 @'
tRp458
sg294
F4
sg295
I01
sg296
F0
sssS'sampler'
p459
(dp460
S'status'
p461
S'ready'
p462
sS'_iter'
p463
g292
(g7
(S'i8'
I0
I1
tRp464
(I3
S'<'
NNNI-1
I-1
I0
tbS'\x90\x01\x00\x00\x00\x00\x00\x00'
tRp465
sS'_tune_interval'
p466
I1000
sS'_tuned_count'
p467
I0
sS'_tune_throughout'
p468
I01
sS'_burn_till_tuned'
p469
I00
sS'_current_iter'
p470
I4
sS'_burn'
p471
I20
sS'_thin'
p472
I1
sssg234
(dp473
I0
g4
(g5
(I0
tS'b'
tRp474
(I1
(I0
tg8
I00
S''
tbssg248
(dp475
I0
g4
(g5
(I0
tS'b'
tRp476
(I1
(I0
tg8
I00
S''
tbssS'Metropolis_B_CIII_adaptive_scale_factor'
p477
(dp478
I0
g4
(g5
(I0
tS'b'
tRp479
(I1
(I0
tg8
I00
S''
tbssg226
(dp480
I0
g4
(g5
(I0
tS'b'
tRp481
(I1
(I0
tg8
I00
S''
tbssg259
(dp482
I0
g4
(g5
(I0
tS'b'
tRp483
(I1
(I0
tg8
I00
S''
tbssg261
(dp484
I0
g4
(g5
(I0
tS'b'
tRp485
(I1
(I0
tg8
I00
S''
tbssS'Metropolis_N_HI_adaptive_scale_factor'
p486
(dp487
I0
g4
(g5
(I0
tS'b'
tRp488
(I1
(I0
tg8
I00
S''
tbssS'Metropolis_B_AsII_adaptive_scale_factor'
p489
(dp490
I0
g4
(g5
(I0
tS'b'
tRp491
(I1
(I0
tg8
I00
S''
tbssS'Metropolis_B_FeIIa_adaptive_scale_factor'
p492
(dp493
I0
g4
(g5
(I0
tS'b'
tRp494
(I1
(I0
tg8
I00
S''
tbssg266
(dp495
I0
g4
(g5
(I0
tS'b'
tRp496
(I1
(I0
tg8
I00
S''
tbssS'Metropolis_TEMP_adaptive_scale_factor'
p497
(dp498
I0
g4
(g5
(I0
tS'b'
tRp499
(I1
(I0
tg8
I00
S''
tbssS'Metropolis_A_Z_FeIIa_adaptive_scale_factor'
p500
(dp501
I0
g4
(g5
(I0
tS'b'
tRp502
(I1
(I0
tg8
I00
S''
tbssg281
(dp503
I0
g4
(g5
(I0
tS'b'
tRp504
(I1
(I0
tg8
I00
S''
tbssS'Metropolis_A_Z_NiII_adaptive_scale_factor'
p505
(dp506
I0
g4
(g5
(I0
tS'b'
tRp507
(I1
(I0
tg8
I00
S''
tbssg216
(dp508
I0
g4
(g5
(I0
tS'b'
tRp509
(I1
(I0
tg8
I00
S''
tbssS'Metropolis_A_Z_FeII_adaptive_scale_factor'
p510
(dp511
I0
g4
(g5
(I0
tS'b'
tRp512
(I1
(I0
tg8
I00
S''
tbssS'Metropolis_B_CrIII_adaptive_scale_factor'
p513
(dp514
I0
g4
(g5
(I0
tS'b'
tRp515
(I1
(I0
tg8
I00
S''
tbssS'Metropolis_A_Z_ZnII_adaptive_scale_factor'
p516
(dp517
I0
g4
(g5
(I0
tS'b'
tRp518
(I1
(I0
tg8
I00
S''
tbssS'Metropolis_B_HI_adaptive_scale_factor'
p519
(dp520
I0
g4
(g5
(I0
tS'b'
tRp521
(I1
(I0
tg8
I00
S''
tbssS'Metropolis_A_Z_CrII_adaptive_scale_factor'
p522
(dp523
I0
g4
(g5
(I0
tS'b'
tRp524
(I1
(I0
tg8
I00
S''
tbssS'Metropolis_A_Z_AsII_adaptive_scale_factor'
p525
(dp526
I0
g4
(g5
(I0
tS'b'
tRp527
(I1
(I0
tg8
I00
S''
tbssg230
(dp528
I0
g4
(g5
(I0
tS'b'
tRp529
(I1
(I0
tg8
I00
S''
tbssS'Metropolis_B_adaptive_scale_factor'
p530
(dp531
I0
g4
(g5
(I0
tS'b'
tRp532
(I1
(I0
tg8
I00
S''
tbssS'Metropolis_B_NiII_adaptive_scale_factor'
p533
(dp534
I0
g4
(g5
(I0
tS'b'
tRp535
(I1
(I0
tg8
I00
S''
tbssS'Metropolis_A_Z_CIII_adaptive_scale_factor'
p536
(dp537
I0
g4
(g5
(I0
tS'b'
tRp538
(I1
(I0
tg8
I00
S''
tbssS'Metropolis_A_Z_CII_adaptive_scale_factor'
p539
(dp540
I0
g4
(g5
(I0
tS'b'
tRp541
(I1
(I0
tg8
I00
S''
tbssg245
(dp542
I0
g4
(g5
(I0
tS'b'
tRp543
(I1
(I0
tg8
I00
S''
tbssS'Metropolis_B_SiII_adaptive_scale_factor'
p544
(dp545
I0
g4
(g5
(I0
tS'b'
tRp546
(I1
(I0
tg8
I00
S''
tbssg243
(dp547
I0
g4
(g5
(I0
tS'b'
tRp548
(I1
(I0
tg8
I00
S''
tbssS'Metropolis_A_Z_SiII_adaptive_scale_factor'
p549
(dp550
I0
g4
(g5
(I0
tS'b'
tRp551
(I1
(I0
tg8
I00
S''
tbssS'Metropolis_B_FeII_adaptive_scale_factor'
p552
(dp553
I0
g4
(g5
(I0
tS'b'
tRp554
(I1
(I0
tg8
I00
S''
tbssg271
(dp555
I0
g4
(g5
(I0
tS'b'
tRp556
(I1
(I0
tg8
I00
S''
tbssS'Metropolis_A_Z_SIV_adaptive_scale_factor'
p557
(dp558
I0
g4
(g5
(I0
tS'b'
tRp559
(I1
(I0
tg8
I00
S''
tbssg252
(dp560
I0
g4
(g5
(I0
tS'b'
tRp561
(I1
(I0
tg8
I00
S''
tbssg254
(dp562
I0
g4
(g5
(I0
tS'b'
tRp563
(I1
(I0
tg8
I00
S''
tbssS'Metropolis_N_OI_adaptive_scale_factor'
p564
(dp565
I0
g4
(g5
(I0
tS'b'
tRp566
(I1
(I0
tg8
I00
S''
tbssg263
(dp567
I0
g4
(g5
(I0
tS'b'
tRp568
(I1
(I0
tg8
I00
S''
tbssg268
(dp569
I0
g4
(g5
(I0
tS'b'
tRp570
(I1
(I0
tg8
I00
S''
tbssg273
(dp571
I0
g4
(g5
(I0
tS'b'
tRp572
(I1
(I0
tg8
I00
S''
tbssS'Metropolis_N_OIa_adaptive_scale_factor'
p573
(dp574
I0
g4
(g5
(I0
tS'b'
tRp575
(I1
(I0
tg8
I00
S''
tbssg279
(dp576
I0
g4
(g5
(I0
tS'b'
tRp577
(I1
(I0
tg8
I00
S''
tbssS'Metropolis_N_FeIIa_adaptive_scale_factor'
p578
(dp579
I0
g4
(g5
(I0
tS'b'
tRp580
(I1
(I0
tg8
I00
S''
tbssg275
(dp581
I0
g4
(g5
(I0
tS'b'
tRp582
(I1
(I0
tg8
I00
S''
tbssS'Metropolis_A_Z_ArI_adaptive_scale_factor'
p583
(dp584
I0
g4
(g5
(I0
tS'b'
tRp585
(I1
(I0
tg8
I00
S''
tbssS'Metropolis_B_CII_adaptive_scale_factor'
p586
(dp587
I0
g4
(g5
(I0
tS'b'
tRp588
(I1
(I0
tg8
I00
S''
tbss.