(dp1
S'B_SiIIa'
p2
(dp3
I0
cnumpy.core.multiarray
_reconstruct
p4
(cnumpy
ndarray
p5
(I0
tS'b'
tRp6
(I1
(I0
tcnumpy
dtype
p7
(S'f8'
I0
I1
tRp8
(I3
S'<'
NNNI-1
I-1
I0
tbI00
S''
tbssS'N_FeII'
p9
(dp10
I0
g4
(g5
(I0
tS'b'
tRp11
(I1
(I0
tg8
I00
S''
tbssS'Metropolis_A_Z_SiIIa_adaptive_scale_factor'
p12
(dp13
I0
g4
(g5
(I0
tS'b'
tRp14
(I1
(I0
tg8
I00
S''
tbssS'Metropolis_B_OIa_adaptive_scale_factor'
p15
(dp16
I0
g4
(g5
(I0
tS'b'
tRp17
(I1
(I0
tg8
I00
S''
tbssS'Metropolis_N_SII_adaptive_scale_factor'
p18
(dp19
I0
g4
(g5
(I0
tS'b'
tRp20
(I1
(I0
tg8
I00
S''
tbssS'B_FeII'
p21
(dp22
I0
g4
(g5
(I0
tS'b'
tRp23
(I1
(I0
tg8
I00
S''
tbssS'Metropolis_A_Z_SII_adaptive_scale_factor'
p24
(dp25
I0
g4
(g5
(I0
tS'b'
tRp26
(I1
(I0
tg8
I00
S''
tbssS'B_OIb'
p27
(dp28
I0
g4
(g5
(I0
tS'b'
tRp29
(I1
(I0
tg8
I00
S''
tbssS'B_OIa'
p30
(dp31
I0
g4
(g5
(I0
tS'b'
tRp32
(I1
(I0
tg8
I00
S''
tbssS'B_SiIV'
p33
(dp34
I0
g4
(g5
(I0
tS'b'
tRp35
(I1
(I0
tg8
I00
S''
tbssS'B_SiII'
p36
(dp37
I0
g4
(g5
(I0
tS'b'
tRp38
(I1
(I0
tg8
I00
S''
tbssS'Metropolis_A_Z_OIa_adaptive_scale_factor'
p39
(dp40
I0
g4
(g5
(I0
tS'b'
tRp41
(I1
(I0
tg8
I00
S''
tbssS'A_Z_NI'
p42
(dp43
I0
g4
(g5
(I0
tS'b'
tRp44
(I1
(I0
tg8
I00
S''
tbssS'Metropolis_N_NI_adaptive_scale_factor'
p45
(dp46
I0
g4
(g5
(I0
tS'b'
tRp47
(I1
(I0
tg8
I00
S''
tbssS'Metropolis_N_FeII_adaptive_scale_factor'
p48
(dp49
I0
g4
(g5
(I0
tS'b'
tRp50
(I1
(I0
tg8
I00
S''
tbssS'A_Z_HI'
p51
(dp52
I0
g4
(g5
(I0
tS'b'
tRp53
(I1
(I0
tg8
I00
S''
tbssS'N_SII'
p54
(dp55
I0
g4
(g5
(I0
tS'b'
tRp56
(I1
(I0
tg8
I00
S''
tbssS'N_OIb'
p57
(dp58
I0
g4
(g5
(I0
tS'b'
tRp59
(I1
(I0
tg8
I00
S''
tbssS'N_OIa'
p60
(dp61
I0
g4
(g5
(I0
tS'b'
tRp62
(I1
(I0
tg8
I00
S''
tbssS'Metropolis_N_SiII_adaptive_scale_factor'
p63
(dp64
I0
g4
(g5
(I0
tS'b'
tRp65
(I1
(I0
tg8
I00
S''
tbssS'Metropolis_A_Z_OIb_adaptive_scale_factor'
p66
(dp67
I0
g4
(g5
(I0
tS'b'
tRp68
(I1
(I0
tg8
I00
S''
tbssS'N_FeIIb'
p69
(dp70
I0
g4
(g5
(I0
tS'b'
tRp71
(I1
(I0
tg8
I00
S''
tbssS'N_FeIIa'
p72
(dp73
I0
g4
(g5
(I0
tS'b'
tRp74
(I1
(I0
tg8
I00
S''
tbssS'deviance'
p75
(dp76
I0
g4
(g5
(I0
tS'b'
tRp77
(I1
(I0
tg8
I00
S''
tbssS'Metropolis_B_OIb_adaptive_scale_factor'
p78
(dp79
I0
g4
(g5
(I0
tS'b'
tRp80
(I1
(I0
tg8
I00
S''
tbssS'A_Z_OI'
p81
(dp82
I0
g4
(g5
(I0
tS'b'
tRp83
(I1
(I0
tg8
I00
S''
tbssS'A_Z_FeII'
p84
(dp85
I0
g4
(g5
(I0
tS'b'
tRp86
(I1
(I0
tg8
I00
S''
tbssS'Metropolis_A_Z_FeIIb_adaptive_scale_factor'
p87
(dp88
I0
g4
(g5
(I0
tS'b'
tRp89
(I1
(I0
tg8
I00
S''
tbssS'Metropolis_A_Z_adaptive_scale_factor'
p90
(dp91
I0
g4
(g5
(I0
tS'b'
tRp92
(I1
(I0
tg8
I00
S''
tbssS'Metropolis_N_NiII_adaptive_scale_factor'
p93
(dp94
I0
g4
(g5
(I0
tS'b'
tRp95
(I1
(I0
tg8
I00
S''
tbssS'Metropolis_A_Z_OI_adaptive_scale_factor'
p96
(dp97
I0
g4
(g5
(I0
tS'b'
tRp98
(I1
(I0
tg8
I00
S''
tbssS'Metropolis_B_SiIIa_adaptive_scale_factor'
p99
(dp100
I0
g4
(g5
(I0
tS'b'
tRp101
(I1
(I0
tg8
I00
S''
tbssS'N_NiII'
p102
(dp103
I0
g4
(g5
(I0
tS'b'
tRp104
(I1
(I0
tg8
I00
S''
tbssS'Metropolis_A_Z_NI_adaptive_scale_factor'
p105
(dp106
I0
g4
(g5
(I0
tS'b'
tRp107
(I1
(I0
tg8
I00
S''
tbssS'TEMP'
p108
(dp109
I0
g4
(g5
(I0
tS'b'
tRp110
(I1
(I0
tg8
I00
S''
tbssS'A_Z_SII'
p111
(dp112
I0
g4
(g5
(I0
tS'b'
tRp113
(I1
(I0
tg8
I00
S''
tbssS'Metropolis_B_NI_adaptive_scale_factor'
p114
(dp115
I0
g4
(g5
(I0
tS'b'
tRp116
(I1
(I0
tg8
I00
S''
tbssS'A_Z'
p117
(dp118
I0
g4
(g5
(I0
tS'b'
tRp119
(I1
(I0
tg8
I00
S''
tbssS'B_SII'
p120
(dp121
I0
g4
(g5
(I0
tS'b'
tRp122
(I1
(I0
tg8
I00
S''
tbssS'Metropolis_TEMP_adaptive_scale_factor'
p123
(dp124
I0
g4
(g5
(I0
tS'b'
tRp125
(I1
(I0
tg8
I00
S''
tbssS'Metropolis_A_Z_FeIIa_adaptive_scale_factor'
p126
(dp127
I0
g4
(g5
(I0
tS'b'
tRp128
(I1
(I0
tg8
I00
S''
tbssS'Metropolis_N_FeIIb_adaptive_scale_factor'
p129
(dp130
I0
g4
(g5
(I0
tS'b'
tRp131
(I1
(I0
tg8
I00
S''
tbssS'Metropolis_A_Z_HI_adaptive_scale_factor'
p132
(dp133
I0
g4
(g5
(I0
tS'b'
tRp134
(I1
(I0
tg8
I00
S''
tbssS'B_OI'
p135
(dp136
I0
g4
(g5
(I0
tS'b'
tRp137
(I1
(I0
tg8
I00
S''
tbssS'Metropolis_N_OIb_adaptive_scale_factor'
p138
(dp139
I0
g4
(g5
(I0
tS'b'
tRp140
(I1
(I0
tg8
I00
S''
tbssS'N_SiII'
p141
(dp142
I0
g4
(g5
(I0
tS'b'
tRp143
(I1
(I0
tg8
I00
S''
tbssS'B_FeIIb'
p144
(dp145
I0
g4
(g5
(I0
tS'b'
tRp146
(I1
(I0
tg8
I00
S''
tbssS'B_FeIIa'
p147
(dp148
I0
g4
(g5
(I0
tS'b'
tRp149
(I1
(I0
tg8
I00
S''
tbssS'A_Z_NiII'
p150
(dp151
I0
g4
(g5
(I0
tS'b'
tRp152
(I1
(I0
tg8
I00
S''
tbssS'N_SiIV'
p153
(dp154
I0
g4
(g5
(I0
tS'b'
tRp155
(I1
(I0
tg8
I00
S''
tbssS'A_Z_SiIIa'
p156
(dp157
I0
g4
(g5
(I0
tS'b'
tRp158
(I1
(I0
tg8
I00
S''
tbssS'Metropolis_B_OI_adaptive_scale_factor'
p159
(dp160
I0
g4
(g5
(I0
tS'b'
tRp161
(I1
(I0
tg8
I00
S''
tbssS'Metropolis_B_FeIIb_adaptive_scale_factor'
p162
(dp163
I0
g4
(g5
(I0
tS'b'
tRp164
(I1
(I0
tg8
I00
S''
tbssS'Metropolis_B_SiIV_adaptive_scale_factor'
p165
(dp166
I0
g4
(g5
(I0
tS'b'
tRp167
(I1
(I0
tg8
I00
S''
tbssS'Metropolis_A_Z_SiIV_adaptive_scale_factor'
p168
(dp169
I0
g4
(g5
(I0
tS'b'
tRp170
(I1
(I0
tg8
I00
S''
tbssS'B'
(dp171
I0
g4
(g5
(I0
tS'b'
tRp172
(I1
(I0
tg8
I00
S''
tbssS'B_HI'
p173
(dp174
I0
g4
(g5
(I0
tS'b'
tRp175
(I1
(I0
tg8
I00
S''
tbssS'Metropolis_NTOTH2_adaptive_scale_factor'
p176
(dp177
I0
g4
(g5
(I0
tS'b'
tRp178
(I1
(I0
tg8
I00
S''
tbssS'_state_'
p179
(dp180
S'stochastics'
p181
(dp182
g135
g4
(g5
(I0
tS'b'
tRp183
(I1
(tg8
I00
S'\x04+\xfd\x86!\xa4=@'
tbsg2
g4
(g5
(I0
tS'b'
tRp184
(I1
(tg8
I00
S'\xf0K\x9a\x86\xb6]1@'
tbsg141
g4
(g5
(I0
tS'b'
tRp185
(I1
(tg8
I00
S'\xea6:\x86\x1f\xb03@'
tbsg9
g4
(g5
(I0
tS'b'
tRp186
(I1
(tg8
I00
S"_\xb4\xb4'a\xe9(@"
tbsg84
g4
(g5
(I0
tS'b'
tRp187
(I1
(tg8
I00
S'\xd3\\\xa7y\x94\xa3\x11\xc0'
tbsg144
g4
(g5
(I0
tS'b'
tRp188
(I1
(tg8
I00
S'\xe4\x9fFH?T/@'
tbsg147
g4
(g5
(I0
tS'b'
tRp189
(I1
(tg8
I00
S'\xc85\xbbF.\xeb!@'
tbsS'A_Z_SiII'
p190
g4
(g5
(I0
tS'b'
tRp191
(I1
(tg8
I00
S'\x8e\xa5\xc3\xa6\xdc\x93\x07@'
tbsg120
g4
(g5
(I0
tS'b'
tRp192
(I1
(tg8
I00
S'\xae\x99$\xc1\x06\xa9\x1c@'
tbsg150
g4
(g5
(I0
tS'b'
tRp193
(I1
(tg8
I00
S'\x8e#T\xbdkw\xfd\xbf'
tbsg102
g4
(g5
(I0
tS'b'
tRp194
(I1
(tg8
I00
S'\xd6;\x14\x11\xd0\xa2\x1c@'
tbsg153
g4
(g5
(I0
tS'b'
tRp195
(I1
(tg8
I00
S'`Z\x05\x0f\x86\x8b\x1f@'
tbsg156
g4
(g5
(I0
tS'b'
tRp196
(I1
(tg8
I00
S'ax\xc8\x86\x13n\xf5?'
tbsg21
g4
(g5
(I0
tS'b'
tRp197
(I1
(tg8
I00
S'\n\xf8\xc0\xd0\xa2\x8f!@'
tbsg108
g4
(g5
(I0
tS'b'
tRp198
(I1
(tg8
I00
S'D\xf2Y\xf3k\xf6X@'
tbsg27
g4
(g5
(I0
tS'b'
tRp199
(I1
(tg8
I00
S'\xea[\xb6\x07SV&@'
tbsg30
g4
(g5
(I0
tS'b'
tRp200
(I1
(tg8
I00
S'Q\x84T7\x9e\xfe/@'
tbsg33
g4
(g5
(I0
tS'b'
tRp201
(I1
(tg8
I00
S'\xba\x1a\xca\x01+\x05\xf3?'
tbsS'N_SiIIa'
p202
g4
(g5
(I0
tS'b'
tRp203
(I1
(tg8
I00
S'|\xc9\x02Q\xb9\xcc1@'
tbsg36
g4
(g5
(I0
tS'b'
tRp204
(I1
(tg8
I00
S'\xd4\xd5\xedf\xf0\xfe,@'
tbsg42
g4
(g5
(I0
tS'b'
tRp205
(I1
(tg8
I00
S'\x19\xe2\x14_\x05\xd8\x16@'
tbsS'N_NI'
p206
g4
(g5
(I0
tS'b'
tRp207
(I1
(tg8
I00
S'\xf5D\xb58oz$@'
tbsS'B_NI'
p208
g4
(g5
(I0
tS'b'
tRp209
(I1
(tg8
I00
S'\xfdK\xb2\x08\xfb\xb5+@'
tbsS'B'
g4
(g5
(I0
tS'b'
tRp210
(I1
(tg8
I00
S'\xe5\xecO.\xf5$\x08@'
tbsg173
g4
(g5
(I0
tS'b'
tRp211
(I1
(tg8
I00
S'\xc0S\xbe\x93\xb7\x9b\xeb?'
tbsS'N_HI'
p212
g4
(g5
(I0
tS'b'
tRp213
(I1
(tg8
I00
S'\xaf\xf0\x06\xaf\x1c36@'
tbsg111
g4
(g5
(I0
tS'b'
tRp214
(I1
(tg8
I00
S'_n\x95\x8d\xfax\x13@'
tbsg51
g4
(g5
(I0
tS'b'
tRp215
(I1
(tg8
I00
S'\xad\\\x8fA\x07\x1c\r@'
tbsg54
g4
(g5
(I0
tS'b'
tRp216
(I1
(tg8
I00
S'\xfd\xf7\xc9\x91\x0672@'
tbsg57
g4
(g5
(I0
tS'b'
tRp217
(I1
(tg8
I00
S"`\xa3\xeat'H+@"
tbsg117
g4
(g5
(I0
tS'b'
tRp218
(I1
(tg8
I00
S'\x18\xb6\r\xf6"`\x12@'
tbsS'A_Z_OIb'
p219
g4
(g5
(I0
tS'b'
tRp220
(I1
(tg8
I00
S't\xe6[\x7f\xfd\x93\x12\xc0'
tbsg60
g4
(g5
(I0
tS'b'
tRp221
(I1
(tg8
I00
S'\xd1~^\xf5H\xb0.@'
tbsS'NTOTH2'
p222
g4
(g5
(I0
tS'b'
tRp223
(I1
(tg8
I00
S'\x1baN\xab}\xa3*@'
tbsg69
g4
(g5
(I0
tS'b'
tRp224
(I1
(tg8
I00
S'\xf5\x1c\x98f\xd6\xd2\x12@'
tbsg72
g4
(g5
(I0
tS'b'
tRp225
(I1
(tg8
I00
S'\xe0\xdd\xfe\xf8\x18} @'
tbsS'A_Z_FeIIa'
p226
g4
(g5
(I0
tS'b'
tRp227
(I1
(tg8
I00
S'\xfc\xbf\x9bWu4\xe2\xbf'
tbsS'A_Z_OIa'
p228
g4
(g5
(I0
tS'b'
tRp229
(I1
(tg8
I00
S'<?\xd2\x1az4\x11\xc0'
tbsS'A_Z_FeIIb'
p230
g4
(g5
(I0
tS'b'
tRp231
(I1
(tg8
I00
S'c\xd8\xc3\xe38\xb1\x13@'
tbsS'A_Z_SiIV'
p232
g4
(g5
(I0
tS'b'
tRp233
(I1
(tg8
I00
S'\xa3\xc9\x99\xcc\xfb\x84"\xc0'
tbsS'N_OI'
p234
g4
(g5
(I0
tS'b'
tRp235
(I1
(tg8
I00
S'\x10\x9aj\x1f\xf0<\xf1?'
tbsS'B_NiII'
p236
g4
(g5
(I0
tS'b'
tRp237
(I1
(tg8
I00
S'5*-D\x9c\xb7\x15@'
tbsg81
g4
(g5
(I0
tS'b'
tRp238
(I1
(tg8
I00
S'\xa4\x92\xcd\x07\x9a?\x12\xc0'
tbssS'step_methods'
p239
(dp240
S'Metropolis_A_Z_NiII'
p241
(dp242
S'adaptive_scale_factor'
p243
F1
sS'proposal_distribution'
p244
S'Normal'
p245
sS'proposal_sd'
p246
cnumpy.core.multiarray
scalar
p247
(g8
S'\x00\x00\x00\x00\x00\x00\xf0?'
tRp248
sS'accepted'
p249
F19
sS'check_before_accepting'
p250
I01
sS'rejected'
p251
F0
ssS'Metropolis_N_HI'
p252
(dp253
g243
F1
sg244
g245
sg246
g247
(g8
S'\xaf\xf0\x06\xaf\x1c36@'
tRp254
sg249
F0
sg250
I01
sg251
F19
ssS'Metropolis_N_FeII'
p255
(dp256
g243
F1
sg244
g245
sg246
g247
(g8
S'\x00\x00\x00\x00\x00\x000@'
tRp257
sg249
F10
sg250
I01
sg251
F9
ssS'Metropolis_N_OI'
p258
(dp259
g243
F1
sg244
g245
sg246
g247
(g8
S'\x00\x00\x00\x00\x00\x000@'
tRp260
sg249
F9
sg250
I01
sg251
F10
ssS'Metropolis_A_Z_SiIIa'
p261
(dp262
g243
F1
sg244
g245
sg246
g247
(g8
S'\x00\x00\x00\x00\x00\x00\xf0?'
tRp263
sg249
F19
sg250
I01
sg251
F0
ssS'Metropolis_A_Z'
p264
(dp265
g243
F1
sg244
g245
sg246
g247
(g8
S'\x00\x00\x00\x00\x00\x00\xf0?'
tRp266
sg249
F19
sg250
I01
sg251
F0
ssS'Metropolis_N_SII'
p267
(dp268
g243
F1
sg244
g245
sg246
g247
(g8
S'\x00\x00\x00\x00\x00\x000@'
tRp269
sg249
F11
sg250
I01
sg251
F8
ssS'Metropolis_B_SiII'
p270
(dp271
g243
F1
sg244
g245
sg246
g247
(g8
S'\x00\x00\x00\x00\x00\x00 @'
tRp272
sg249
F16
sg250
I01
sg251
F3
ssS'Metropolis_TEMP'
p273
(dp274
g243
F1
sg244
g245
sg246
g247
(g8
S'\x00\x00\x00\x00\x00\x00Y@'
tRp275
sg249
F19
sg250
I01
sg251
F1
ssS'Metropolis_B_NI'
p276
(dp277
g243
F1
sg244
g245
sg246
g247
(g8
S'\x00\x00\x00\x00\x00\x00 @'
tRp278
sg249
F18
sg250
I01
sg251
F1
ssS'Metropolis_N_NiII'
p279
(dp280
g243
F1
sg244
g245
sg246
g247
(g8
S'\x00\x00\x00\x00\x00\x000@'
tRp281
sg249
F6
sg250
I01
sg251
F13
ssS'Metropolis_A_Z_OI'
p282
(dp283
g243
F1
sg244
g245
sg246
g247
(g8
S'\x00\x00\x00\x00\x00\x00\xf0?'
tRp284
sg249
F19
sg250
I01
sg251
F0
ssS'Metropolis_B_HI'
p285
(dp286
g243
F1
sg244
g245
sg246
g247
(g8
S'\x0b6A\xa0\x04.0@'
tRp287
sg249
F11
sg250
I01
sg251
F8
ssS'Metropolis_A_Z_OIa'
p288
(dp289
g243
F1
sg244
g245
sg246
g247
(g8
S'\x00\x00\x00\x00\x00\x00\xf0?'
tRp290
sg249
F19
sg250
I01
sg251
F0
ssS'Metropolis_NTOTH2'
p291
(dp292
g243
F1
sg244
g245
sg246
g247
(g8
S"n\xd4\xc81\xad\xc1'@"
tRp293
sg249
F12
sg250
I01
sg251
F7
ssS'Metropolis_N_SiIV'
p294
(dp295
g243
F1
sg244
g245
sg246
g247
(g8
S'\x00\x00\x00\x00\x00\x000@'
tRp296
sg249
F10
sg250
I01
sg251
F10
ssS'Metropolis_B_SiIV'
p297
(dp298
g243
F1
sg244
g245
sg246
g247
(g8
S'\x00\x00\x00\x00\x00\x00 @'
tRp299
sg249
F18
sg250
I01
sg251
F2
ssS'Metropolis_N_SiIIa'
p300
(dp301
g243
F1
sg244
g245
sg246
g247
(g8
S'\x00\x00\x00\x00\x00\x000@'
tRp302
sg249
F7
sg250
I01
sg251
F12
ssS'Metropolis_A_Z_SiIV'
p303
(dp304
g243
F1
sg244
g245
sg246
g247
(g8
S'\x00\x00\x00\x00\x00\x00\xf0?'
tRp305
sg249
F19
sg250
I01
sg251
F0
ssS'Metropolis_B_FeII'
p306
(dp307
g243
F1
sg244
g245
sg246
g247
(g8
S'\x00\x00\x00\x00\x00\x00 @'
tRp308
sg249
F15
sg250
I01
sg251
F4
ssS'Metropolis_A_Z_HI'
p309
(dp310
g243
F1
sg244
g245
sg246
g247
(g8
S'\xe0]\x04/\xc3\x89\x03@'
tRp311
sg249
F18
sg250
I01
sg251
F1
ssS'Metropolis_B_FeIIb'
p312
(dp313
g243
F1
sg244
g245
sg246
g247
(g8
S'\x00\x00\x00\x00\x00\x00 @'
tRp314
sg249
F14
sg250
I01
sg251
F5
ssS'Metropolis_N_NI'
p315
(dp316
g243
F1
sg244
g245
sg246
g247
(g8
S'\x00\x00\x00\x00\x00\x000@'
tRp317
sg249
F8
sg250
I01
sg251
F11
ssS'Metropolis_B_SII'
p318
(dp319
g243
F1
sg244
g245
sg246
g247
(g8
S'\x00\x00\x00\x00\x00\x00 @'
tRp320
sg249
F16
sg250
I01
sg251
F3
ssS'Metropolis_B_OIb'
p321
(dp322
g243
F1
sg244
g245
sg246
g247
(g8
S'\x00\x00\x00\x00\x00\x00 @'
tRp323
sg249
F17
sg250
I01
sg251
F2
ssS'Metropolis_B_OIa'
p324
(dp325
g243
F1
sg244
g245
sg246
g247
(g8
S'\x00\x00\x00\x00\x00\x00 @'
tRp326
sg249
F13
sg250
I01
sg251
F6
ssS'Metropolis_N_OIa'
p327
(dp328
g243
F1
sg244
g245
sg246
g247
(g8
S'\x00\x00\x00\x00\x00\x000@'
tRp329
sg249
F10
sg250
I01
sg251
F9
ssS'Metropolis_A_Z_OIb'
p330
(dp331
g243
F1
sg244
g245
sg246
g247
(g8
S'\x00\x00\x00\x00\x00\x00\xf0?'
tRp332
sg249
F19
sg250
I01
sg251
F0
ssS'Metropolis_N_SiII'
p333
(dp334
g243
F1
sg244
g245
sg246
g247
(g8
S'\x00\x00\x00\x00\x00\x000@'
tRp335
sg249
F9
sg250
I01
sg251
F10
ssS'Metropolis_A_Z_FeIIb'
p336
(dp337
g243
F1
sg244
g245
sg246
g247
(g8
S'\x00\x00\x00\x00\x00\x00\xf0?'
tRp338
sg249
F19
sg250
I01
sg251
F0
ssS'Metropolis_B_FeIIa'
p339
(dp340
g243
F1
sg244
g245
sg246
g247
(g8
S'\x00\x00\x00\x00\x00\x00 @'
tRp341
sg249
F15
sg250
I01
sg251
F5
ssS'Metropolis_A_Z_SiII'
p342
(dp343
g243
F1
sg244
g245
sg246
g247
(g8
S'\x00\x00\x00\x00\x00\x00\xf0?'
tRp344
sg249
F19
sg250
I01
sg251
F0
ssS'Metropolis_N_OIb'
p345
(dp346
g243
F1
sg244
g245
sg246
g247
(g8
S'\x00\x00\x00\x00\x00\x000@'
tRp347
sg249
F13
sg250
I01
sg251
F6
ssS'Metropolis_B_SiIIa'
p348
(dp349
g243
F1
sg244
g245
sg246
g247
(g8
S'\x00\x00\x00\x00\x00\x00 @'
tRp350
sg249
F17
sg250
I01
sg251
F2
ssS'Metropolis_A_Z_SII'
p351
(dp352
g243
F1
sg244
g245
sg246
g247
(g8
S'\x00\x00\x00\x00\x00\x00\xf0?'
tRp353
sg249
F20
sg250
I01
sg251
F0
ssS'Metropolis_A_Z_NI'
p354
(dp355
g243
F1
sg244
g245
sg246
g247
(g8
S'\x00\x00\x00\x00\x00\x00\xf0?'
tRp356
sg249
F19
sg250
I01
sg251
F0
ssS'Metropolis_B_NiII'
p357
(dp358
g243
F1
sg244
g245
sg246
g247
(g8
S'\x00\x00\x00\x00\x00\x00 @'
tRp359
sg249
F15
sg250
I01
sg251
F4
ssS'Metropolis_N_FeIIb'
p360
(dp361
g243
F1
sg244
g245
sg246
g247
(g8
S'\x00\x00\x00\x00\x00\x000@'
tRp362
sg249
F9
sg250
I01
sg251
F10
ssS'Metropolis_N_FeIIa'
p363
(dp364
g243
F1
sg244
g245
sg246
g247
(g8
S'\x00\x00\x00\x00\x00\x000@'
tRp365
sg249
F6
sg250
I01
sg251
F13
ssS'Metropolis_A_Z_FeIIa'
p366
(dp367
g243
F1
sg244
g245
sg246
g247
(g8
S'\x00\x00\x00\x00\x00\x00\xf0?'
tRp368
sg249
F19
sg250
I01
sg251
F0
ssS'Metropolis_B'
p369
(dp370
g243
F1
sg244
g245
sg246
g247
(g8
S'\x00\x00\x00\x00\x00\x00\x00@'
tRp371
sg249
F11
sg250
I01
sg251
F8
ssS'Metropolis_A_Z_FeII'
p372
(dp373
g243
F1
sg244
g245
sg246
g247
(g8
S'\x00\x00\x00\x00\x00\x00\xf0?'
tRp374
sg249
F19
sg250
I01
sg251
F0
ssS'Metropolis_B_OI'
p375
(dp376
g243
F1
sg244
g245
sg246
g247
(g8
S'\x00\x00\x00\x00\x00\x00 @'
tRp377
sg249
F12
sg250
I01
sg251
F7
sssS'sampler'
p378
(dp379
S'status'
p380
S'ready'
p381
sS'_iter'
p382
g247
(g7
(S'i8'
I0
I1
tRp383
(I3
S'<'
NNNI-1
I-1
I0
tbS'\xf4\x01\x00\x00\x00\x00\x00\x00'
tRp384
sS'_tune_interval'
p385
I1000
sS'_tuned_count'
p386
I0
sS'_tune_throughout'
p387
I01
sS'_burn_till_tuned'
p388
I00
sS'_current_iter'
p389
I19
sS'_burn'
p390
I250
sS'_thin'
p391
I1
sssg222
(dp392
I0
g4
(g5
(I0
tS'b'
tRp393
(I1
(I0
tg8
I00
S''
tbssS'Metropolis_N_HI_adaptive_scale_factor'
p394
(dp395
I0
g4
(g5
(I0
tS'b'
tRp396
(I1
(I0
tg8
I00
S''
tbssS'Metropolis_B_FeIIa_adaptive_scale_factor'
p397
(dp398
I0
g4
(g5
(I0
tS'b'
tRp399
(I1
(I0
tg8
I00
S''
tbssS'Metropolis_N_SiIIa_adaptive_scale_factor'
p400
(dp401
I0
g4
(g5
(I0
tS'b'
tRp402
(I1
(I0
tg8
I00
S''
tbssS'H2'
p403
(dp404
I0
g4
(g5
(I0
tS'b'
tRp405
(I1
(I0
I1831
tg8
I00
S''
tbssg236
(dp406
I0
g4
(g5
(I0
tS'b'
tRp407
(I1
(I0
tg8
I00
S''
tbssS'Metropolis_A_Z_NiII_adaptive_scale_factor'
p408
(dp409
I0
g4
(g5
(I0
tS'b'
tRp410
(I1
(I0
tg8
I00
S''
tbssg190
(dp411
I0
g4
(g5
(I0
tS'b'
tRp412
(I1
(I0
tg8
I00
S''
tbssS'Metropolis_A_Z_FeII_adaptive_scale_factor'
p413
(dp414
I0
g4
(g5
(I0
tS'b'
tRp415
(I1
(I0
tg8
I00
S''
tbssS'Metropolis_N_OIa_adaptive_scale_factor'
p416
(dp417
I0
g4
(g5
(I0
tS'b'
tRp418
(I1
(I0
tg8
I00
S''
tbssg232
(dp419
I0
g4
(g5
(I0
tS'b'
tRp420
(I1
(I0
tg8
I00
S''
tbssS'Metropolis_B_HI_adaptive_scale_factor'
p421
(dp422
I0
g4
(g5
(I0
tS'b'
tRp423
(I1
(I0
tg8
I00
S''
tbssS'Metropolis_B_adaptive_scale_factor'
p424
(dp425
I0
g4
(g5
(I0
tS'b'
tRp426
(I1
(I0
tg8
I00
S''
tbssg202
(dp427
I0
g4
(g5
(I0
tS'b'
tRp428
(I1
(I0
tg8
I00
S''
tbssS'Metropolis_B_NiII_adaptive_scale_factor'
p429
(dp430
I0
g4
(g5
(I0
tS'b'
tRp431
(I1
(I0
tg8
I00
S''
tbssS'Metropolis_N_SiIV_adaptive_scale_factor'
p432
(dp433
I0
g4
(g5
(I0
tS'b'
tRp434
(I1
(I0
tg8
I00
S''
tbssg206
(dp435
I0
g4
(g5
(I0
tS'b'
tRp436
(I1
(I0
tg8
I00
S''
tbssg208
(dp437
I0
g4
(g5
(I0
tS'b'
tRp438
(I1
(I0
tg8
I00
S''
tbssS'Metropolis_B_SiII_adaptive_scale_factor'
p439
(dp440
I0
g4
(g5
(I0
tS'b'
tRp441
(I1
(I0
tg8
I00
S''
tbssg212
(dp442
I0
g4
(g5
(I0
tS'b'
tRp443
(I1
(I0
tg8
I00
S''
tbssS'Metropolis_A_Z_SiII_adaptive_scale_factor'
p444
(dp445
I0
g4
(g5
(I0
tS'b'
tRp446
(I1
(I0
tg8
I00
S''
tbssS'Metropolis_B_FeII_adaptive_scale_factor'
p447
(dp448
I0
g4
(g5
(I0
tS'b'
tRp449
(I1
(I0
tg8
I00
S''
tbssg228
(dp450
I0
g4
(g5
(I0
tS'b'
tRp451
(I1
(I0
tg8
I00
S''
tbssg219
(dp452
I0
g4
(g5
(I0
tS'b'
tRp453
(I1
(I0
tg8
I00
S''
tbssS'Metropolis_N_OI_adaptive_scale_factor'
p454
(dp455
I0
g4
(g5
(I0
tS'b'
tRp456
(I1
(I0
tg8
I00
S''
tbssg226
(dp457
I0
g4
(g5
(I0
tS'b'
tRp458
(I1
(I0
tg8
I00
S''
tbssg230
(dp459
I0
g4
(g5
(I0
tS'b'
tRp460
(I1
(I0
tg8
I00
S''
tbssS'Metropolis_B_SII_adaptive_scale_factor'
p461
(dp462
I0
g4
(g5
(I0
tS'b'
tRp463
(I1
(I0
tg8
I00
S''
tbssS'Metropolis_N_FeIIa_adaptive_scale_factor'
p464
(dp465
I0
g4
(g5
(I0
tS'b'
tRp466
(I1
(I0
tg8
I00
S''
tbssg234
(dp467
I0
g4
(g5
(I0
tS'b'
tRp468
(I1
(I0
tg8
I00
S''
tbss.