(dp1
S'Metropolis_A_Z_NiII_adaptive_scale_factor'
p2
(dp3
I0
cnumpy.core.multiarray
_reconstruct
p4
(cnumpy
ndarray
p5
(I0
tS'b'
tRp6
(I1
(I0
tcnumpy
dtype
p7
(S'f8'
I0
I1
tRp8
(I3
S'<'
NNNI-1
I-1
I0
tbI00
S''
tbssS'N_SiII'
p9
(dp10
I0
g4
(g5
(I0
tS'b'
tRp11
(I1
(I0
tg8
I00
S''
tbssS'N_FeII'
p12
(dp13
I0
g4
(g5
(I0
tS'b'
tRp14
(I1
(I0
tg8
I00
S''
tbssS'A_Z_FeII'
p15
(dp16
I0
g4
(g5
(I0
tS'b'
tRp17
(I1
(I0
tg8
I00
S''
tbssS'A_Z_SiII'
p18
(dp19
I0
g4
(g5
(I0
tS'b'
tRp20
(I1
(I0
tg8
I00
S''
tbssS'B_MgII'
p21
(dp22
I0
g4
(g5
(I0
tS'b'
tRp23
(I1
(I0
tg8
I00
S''
tbssS'Metropolis_A_Z_FeII_adaptive_scale_factor'
p24
(dp25
I0
g4
(g5
(I0
tS'b'
tRp26
(I1
(I0
tg8
I00
S''
tbssS'Metropolis_N_MgII_adaptive_scale_factor'
p27
(dp28
I0
g4
(g5
(I0
tS'b'
tRp29
(I1
(I0
tg8
I00
S''
tbssS'Metropolis_B_MgII_adaptive_scale_factor'
p30
(dp31
I0
g4
(g5
(I0
tS'b'
tRp32
(I1
(I0
tg8
I00
S''
tbssS'A_Z_NiII'
p33
(dp34
I0
g4
(g5
(I0
tS'b'
tRp35
(I1
(I0
tg8
I00
S''
tbssS'Metropolis_B_HI_adaptive_scale_factor'
p36
(dp37
I0
g4
(g5
(I0
tS'b'
tRp38
(I1
(I0
tg8
I00
S''
tbssS'N_NiII'
p39
(dp40
I0
g4
(g5
(I0
tS'b'
tRp41
(I1
(I0
tg8
I00
S''
tbssS'Metropolis_B_NV_adaptive_scale_factor'
p42
(dp43
I0
g4
(g5
(I0
tS'b'
tRp44
(I1
(I0
tg8
I00
S''
tbssS'N_MgII'
p45
(dp46
I0
g4
(g5
(I0
tS'b'
tRp47
(I1
(I0
tg8
I00
S''
tbssS'B_FeII'
p48
(dp49
I0
g4
(g5
(I0
tS'b'
tRp50
(I1
(I0
tg8
I00
S''
tbssS'A_Z_NV'
p51
(dp52
I0
g4
(g5
(I0
tS'b'
tRp53
(I1
(I0
tg8
I00
S''
tbssS'Metropolis_N_FeII_adaptive_scale_factor'
p54
(dp55
I0
g4
(g5
(I0
tS'b'
tRp56
(I1
(I0
tg8
I00
S''
tbssS'TEMP'
p57
(dp58
I0
g4
(g5
(I0
tS'b'
tRp59
(I1
(I0
tg8
I00
S''
tbssS'Metropolis_B_adaptive_scale_factor'
p60
(dp61
I0
g4
(g5
(I0
tS'b'
tRp62
(I1
(I0
tg8
I00
S''
tbssS'A_Z_MgII'
p63
(dp64
I0
g4
(g5
(I0
tS'b'
tRp65
(I1
(I0
tg8
I00
S''
tbssS'Metropolis_B_NiII_adaptive_scale_factor'
p66
(dp67
I0
g4
(g5
(I0
tS'b'
tRp68
(I1
(I0
tg8
I00
S''
tbssS'B_SiII'
p69
(dp70
I0
g4
(g5
(I0
tS'b'
tRp71
(I1
(I0
tg8
I00
S''
tbssS'Metropolis_A_Z_MgII_adaptive_scale_factor'
p72
(dp73
I0
g4
(g5
(I0
tS'b'
tRp74
(I1
(I0
tg8
I00
S''
tbssS'Metropolis_N_NV_adaptive_scale_factor'
p75
(dp76
I0
g4
(g5
(I0
tS'b'
tRp77
(I1
(I0
tg8
I00
S''
tbssS'B'
(dp78
I0
g4
(g5
(I0
tS'b'
tRp79
(I1
(I0
tg8
I00
S''
tbssS'B_HI'
p80
(dp81
I0
g4
(g5
(I0
tS'b'
tRp82
(I1
(I0
tg8
I00
S''
tbssS'Metropolis_NTOTH2_adaptive_scale_factor'
p83
(dp84
I0
g4
(g5
(I0
tS'b'
tRp85
(I1
(I0
tg8
I00
S''
tbssS'_state_'
p86
(dp87
S'stochastics'
p88
(dp89
g9
g4
(g5
(I0
tS'b'
tRp90
(I1
(tg8
I00
S'\x00\x00\x00\x00\x00\x000@'
tbsg12
g4
(g5
(I0
tS'b'
tRp91
(I1
(tg8
I00
S'\x00\x00\x00\x00\x00\x000@'
tbsg15
g4
(g5
(I0
tS'b'
tRp92
(I1
(tg8
I00
S'\x00\x00\x00\x00\x00\x00\x00\x00'
tbsg18
g4
(g5
(I0
tS'b'
tRp93
(I1
(tg8
I00
S'\x00\x00\x00\x00\x00\x00\x00\x00'
tbsg21
g4
(g5
(I0
tS'b'
tRp94
(I1
(tg8
I00
S'\x00\x00\x00\x00\x00\x00 @'
tbsg33
g4
(g5
(I0
tS'b'
tRp95
(I1
(tg8
I00
S'\xd9\x96\x9c4\xe5t\xdd?'
tbsg39
g4
(g5
(I0
tS'b'
tRp96
(I1
(tg8
I00
S'\x00\x00\x00\x00\x00\x000@'
tbsg45
g4
(g5
(I0
tS'b'
tRp97
(I1
(tg8
I00
S'\x00\x00\x00\x00\x00\x000@'
tbsg48
g4
(g5
(I0
tS'b'
tRp98
(I1
(tg8
I00
S'\x00\x00\x00\x00\x00\x00 @'
tbsg51
g4
(g5
(I0
tS'b'
tRp99
(I1
(tg8
I00
S'\x8b\x06\x945\xa5\xbb\xf1?'
tbsg57
g4
(g5
(I0
tS'b'
tRp100
(I1
(tg8
I00
S'\xfcC\xad\xa6N\x00\x85@'
tbsg63
g4
(g5
(I0
tS'b'
tRp101
(I1
(tg8
I00
S'\x00\x00\x00\x00\x00\x00\x00\x00'
tbsg69
g4
(g5
(I0
tS'b'
tRp102
(I1
(tg8
I00
S'\x00\x00\x00\x00\x00\x00 @'
tbsS'B'
g4
(g5
(I0
tS'b'
tRp103
(I1
(tg8
I00
S'\xc5-6@\xda\x14-@'
tbsg80
g4
(g5
(I0
tS'b'
tRp104
(I1
(tg8
I00
S'\xebP\x84V\nB @'
tbsS'N_NV'
p105
g4
(g5
(I0
tS'b'
tRp106
(I1
(tg8
I00
S'\x00\x00\x00\x00\x00\x000@'
tbsS'N_HI'
p107
g4
(g5
(I0
tS'b'
tRp108
(I1
(tg8
I00
S'1\x8fr\xe2\x9b\xc05@'
tbsS'A_Z_HI'
p109
g4
(g5
(I0
tS'b'
tRp110
(I1
(tg8
I00
S'\x07[;\xcc\xd8\x95W\xc0'
tbsS'A_Z'
p111
g4
(g5
(I0
tS'b'
tRp112
(I1
(tg8
I00
S'\x9b\xec\x9cc\xfdH@@'
tbsS'NTOTH2'
p113
g4
(g5
(I0
tS'b'
tRp114
(I1
(tg8
I00
S"}Y[\xf9\xc0S'@"
tbsS'B_NV'
p115
g4
(g5
(I0
tS'b'
tRp116
(I1
(tg8
I00
S'f~\x0cy}\xae\x16@'
tbsS'B_NiII'
p117
g4
(g5
(I0
tS'b'
tRp118
(I1
(tg8
I00
S'\x00\x00\x00\x00\x00\x00 @'
tbssS'step_methods'
p119
(dp120
S'Metropolis_A_Z_NiII'
p121
(dp122
S'adaptive_scale_factor'
p123
F1
sS'proposal_distribution'
p124
S'Normal'
p125
sS'proposal_sd'
p126
cnumpy.core.multiarray
scalar
p127
(g8
S'\x00\x00\x00\x00\x00\x00\xf0?'
tRp128
sS'accepted'
p129
F1
sS'check_before_accepting'
p130
I01
sS'rejected'
p131
F0
ssS'Metropolis_N_MgII'
p132
(dp133
g123
F1
sg124
g125
sg126
g127
(g8
S'\x00\x00\x00\x00\x00\x000@'
tRp134
sg129
F0
sg130
I01
sg131
F0
ssS'Metropolis_N_FeII'
p135
(dp136
g123
F1
sg124
g125
sg126
g127
(g8
S'\x00\x00\x00\x00\x00\x000@'
tRp137
sg129
F0
sg130
I01
sg131
F0
ssS'Metropolis_A_Z_MgII'
p138
(dp139
g123
F1
sg124
g125
sg126
g127
(g8
S'\x00\x00\x00\x00\x00\x00\xf0?'
tRp140
sg129
F0
sg130
I01
sg131
F0
ssS'Metropolis_A_Z'
p141
(dp142
g123
F1
sg124
g125
sg126
g127
(g8
S'\x9b\xec\x9cc\xfdH@@'
tRp143
sg129
F0
sg130
I01
sg131
F0
ssS'Metropolis_B_SiII'
p144
(dp145
g123
F1
sg124
g125
sg126
g127
(g8
S'\x00\x00\x00\x00\x00\x00 @'
tRp146
sg129
F0
sg130
I01
sg131
F0
ssS'Metropolis_TEMP'
p147
(dp148
g123
F1
sg124
g125
sg126
g127
(g8
S'\xfcC\xad\xa6N\x00\x85@'
tRp149
sg129
F0
sg130
I01
sg131
F0
ssS'Metropolis_N_NiII'
p150
(dp151
g123
F1
sg124
g125
sg126
g127
(g8
S'\x00\x00\x00\x00\x00\x000@'
tRp152
sg129
F0
sg130
I01
sg131
F0
ssS'Metropolis_B_HI'
p153
(dp154
g123
F1
sg124
g125
sg126
g127
(g8
S'\xebP\x84V\nB @'
tRp155
sg129
F0
sg130
I01
sg131
F0
ssS'Metropolis_B_NV'
p156
(dp157
g123
F1
sg124
g125
sg126
g127
(g8
S'\x00\x00\x00\x00\x00\x00 @'
tRp158
sg129
F1
sg130
I01
sg131
F0
ssS'Metropolis_A_Z_SiII'
p159
(dp160
g123
F1
sg124
g125
sg126
g127
(g8
S'\x00\x00\x00\x00\x00\x00\xf0?'
tRp161
sg129
F0
sg130
I01
sg131
F0
ssS'Metropolis_N_HI'
p162
(dp163
g123
F1
sg124
g125
sg126
g127
(g8
S'1\x8fr\xe2\x9b\xc05@'
tRp164
sg129
F0
sg130
I01
sg131
F0
ssS'Metropolis_B_FeII'
p165
(dp166
g123
F1
sg124
g125
sg126
g127
(g8
S'\x00\x00\x00\x00\x00\x00 @'
tRp167
sg129
F0
sg130
I01
sg131
F0
ssS'Metropolis_N_NV'
p168
(dp169
g123
F1
sg124
g125
sg126
g127
(g8
S'\x00\x00\x00\x00\x00\x000@'
tRp170
sg129
F0
sg130
I01
sg131
F0
ssS'Metropolis_NTOTH2'
p171
(dp172
g123
F1
sg124
g125
sg126
g127
(g8
S"}Y[\xf9\xc0S'@"
tRp173
sg129
F0
sg130
I01
sg131
F0
ssS'Metropolis_B_NiII'
p174
(dp175
g123
F1
sg124
g125
sg126
g127
(g8
S'\x00\x00\x00\x00\x00\x00 @'
tRp176
sg129
F0
sg130
I01
sg131
F0
ssS'Metropolis_B_MgII'
p177
(dp178
g123
F1
sg124
g125
sg126
g127
(g8
S'\x00\x00\x00\x00\x00\x00 @'
tRp179
sg129
F0
sg130
I01
sg131
F0
ssS'Metropolis_A_Z_NV'
p180
(dp181
g123
F1
sg124
g125
sg126
g127
(g8
S'\x00\x00\x00\x00\x00\x00\xf0?'
tRp182
sg129
F0
sg130
I01
sg131
F0
ssS'Metropolis_A_Z_HI'
p183
(dp184
g123
F1
sg124
g125
sg126
g127
(g8
S'\x07[;\xcc\xd8\x95W@'
tRp185
sg129
F0
sg130
I01
sg131
F0
ssS'Metropolis_B'
p186
(dp187
g123
F1
sg124
g125
sg126
g127
(g8
S'\xc5-6@\xda\x14-@'
tRp188
sg129
F0
sg130
I01
sg131
F0
ssS'Metropolis_A_Z_FeII'
p189
(dp190
g123
F1
sg124
g125
sg126
g127
(g8
S'\x00\x00\x00\x00\x00\x00\xf0?'
tRp191
sg129
F0
sg130
I01
sg131
F0
ssS'Metropolis_N_SiII'
p192
(dp193
g123
F1
sg124
g125
sg126
g127
(g8
S'\x00\x00\x00\x00\x00\x000@'
tRp194
sg129
F0
sg130
I01
sg131
F0
sssS'sampler'
p195
(dp196
S'status'
p197
S'ready'
p198
sS'_iter'
p199
g127
(g7
(S'i8'
I0
I1
tRp200
(I3
S'<'
NNNI-1
I-1
I0
tbS'@\x1f\x00\x00\x00\x00\x00\x00'
tRp201
sS'_tune_interval'
p202
I1000
sS'_tuned_count'
p203
I0
sS'_tune_throughout'
p204
I01
sS'_burn_till_tuned'
p205
I00
sS'_current_iter'
p206
I0
sS'_burn'
p207
I200
sS'_thin'
p208
I1
sssg105
(dp209
I0
g4
(g5
(I0
tS'b'
tRp210
(I1
(I0
tg8
I00
S''
tbssg107
(dp211
I0
g4
(g5
(I0
tS'b'
tRp212
(I1
(I0
tg8
I00
S''
tbssS'Metropolis_A_Z_SiII_adaptive_scale_factor'
p213
(dp214
I0
g4
(g5
(I0
tS'b'
tRp215
(I1
(I0
tg8
I00
S''
tbssg109
(dp216
I0
g4
(g5
(I0
tS'b'
tRp217
(I1
(I0
tg8
I00
S''
tbssS'Metropolis_B_FeII_adaptive_scale_factor'
p218
(dp219
I0
g4
(g5
(I0
tS'b'
tRp220
(I1
(I0
tg8
I00
S''
tbssg111
(dp221
I0
g4
(g5
(I0
tS'b'
tRp222
(I1
(I0
tg8
I00
S''
tbssS'Metropolis_B_SiII_adaptive_scale_factor'
p223
(dp224
I0
g4
(g5
(I0
tS'b'
tRp225
(I1
(I0
tg8
I00
S''
tbssg113
(dp226
I0
g4
(g5
(I0
tS'b'
tRp227
(I1
(I0
tg8
I00
S''
tbssS'Metropolis_A_Z_adaptive_scale_factor'
p228
(dp229
I0
g4
(g5
(I0
tS'b'
tRp230
(I1
(I0
tg8
I00
S''
tbssg115
(dp231
I0
g4
(g5
(I0
tS'b'
tRp232
(I1
(I0
tg8
I00
S''
tbssS'Metropolis_N_SiII_adaptive_scale_factor'
p233
(dp234
I0
g4
(g5
(I0
tS'b'
tRp235
(I1
(I0
tg8
I00
S''
tbssS'Metropolis_A_Z_NV_adaptive_scale_factor'
p236
(dp237
I0
g4
(g5
(I0
tS'b'
tRp238
(I1
(I0
tg8
I00
S''
tbssS'Metropolis_N_HI_adaptive_scale_factor'
p239
(dp240
I0
g4
(g5
(I0
tS'b'
tRp241
(I1
(I0
tg8
I00
S''
tbssS'deviance'
p242
(dp243
I0
g4
(g5
(I0
tS'b'
tRp244
(I1
(I0
tg8
I00
S''
tbssS'H2'
p245
(dp246
I0
g4
(g5
(I0
tS'b'
tRp247
(I1
(I0
I1261
tg8
I00
S''
tbssS'Metropolis_TEMP_adaptive_scale_factor'
p248
(dp249
I0
g4
(g5
(I0
tS'b'
tRp250
(I1
(I0
tg8
I00
S''
tbssS'Metropolis_A_Z_HI_adaptive_scale_factor'
p251
(dp252
I0
g4
(g5
(I0
tS'b'
tRp253
(I1
(I0
tg8
I00
S''
tbssS'Metropolis_N_NiII_adaptive_scale_factor'
p254
(dp255
I0
g4
(g5
(I0
tS'b'
tRp256
(I1
(I0
tg8
I00
S''
tbssg117
(dp257
I0
g4
(g5
(I0
tS'b'
tRp258
(I1
(I0
tg8
I00
S''
tbss.