(dp1
S'B_OI'
p2
(dp3
I0
cnumpy.core.multiarray
_reconstruct
p4
(cnumpy
ndarray
p5
(I0
tS'b'
tRp6
(I1
(I0
tcnumpy
dtype
p7
(S'f8'
I0
I1
tRp8
(I3
S'<'
NNNI-1
I-1
I0
tbI00
S''
tbssS'Metropolis_B_OI_adaptive_scale_factor'
p9
(dp10
I0
g4
(g5
(I0
tS'b'
tRp11
(I1
(I0
tg8
I00
S''
tbssS'N_SiII'
p12
(dp13
I0
g4
(g5
(I0
tS'b'
tRp14
(I1
(I0
tg8
I00
S''
tbssS'N_FeII'
p15
(dp16
I0
g4
(g5
(I0
tS'b'
tRp17
(I1
(I0
tg8
I00
S''
tbssS'B2.99074164768'
p18
(dp19
I0
g4
(g5
(I0
tS'b'
tRp20
(I1
(I0
tg8
I00
S''
tbssS'A_Z_FeII'
p21
(dp22
I0
g4
(g5
(I0
tS'b'
tRp23
(I1
(I0
tg8
I00
S''
tbssS'H22.99346893517'
p24
(dp25
I0
g4
(g5
(I0
tS'b'
tRp26
(I1
(I0
tg8
I00
S''
tbssS'Metropolis_H22.99074164768_adaptive_scale_factor'
p27
(dp28
I0
g4
(g5
(I0
tS'b'
tRp29
(I1
(I0
tg8
I00
S''
tbssS'Metropolis_A_Z_FeII_adaptive_scale_factor'
p30
(dp31
I0
g4
(g5
(I0
tS'b'
tRp32
(I1
(I0
tg8
I00
S''
tbssS'Metropolis_A_Z_adaptive_scale_factor'
p33
(dp34
I0
g4
(g5
(I0
tS'b'
tRp35
(I1
(I0
tg8
I00
S''
tbssS'Metropolis_B_OIa_adaptive_scale_factor'
p36
(dp37
I0
g4
(g5
(I0
tS'b'
tRp38
(I1
(I0
tg8
I00
S''
tbssS'B'
(dp39
I0
g4
(g5
(I0
tS'b'
tRp40
(I1
(I0
tg8
I00
S''
tbssS'Metropolis_A_Z_OI_adaptive_scale_factor'
p41
(dp42
I0
g4
(g5
(I0
tS'b'
tRp43
(I1
(I0
tg8
I00
S''
tbssS'Metropolis_B_HI_adaptive_scale_factor'
p44
(dp45
I0
g4
(g5
(I0
tS'b'
tRp46
(I1
(I0
tg8
I00
S''
tbssS'Metropolis_T2.99074164768_adaptive_scale_factor'
p47
(dp48
I0
g4
(g5
(I0
tS'b'
tRp49
(I1
(I0
tg8
I00
S''
tbssS'T2.99074164768'
p50
(dp51
I0
g4
(g5
(I0
tS'b'
tRp52
(I1
(I0
tg8
I00
S''
tbssS'B_FeII'
p53
(dp54
I0
g4
(g5
(I0
tS'b'
tRp55
(I1
(I0
tg8
I00
S''
tbssS'Metropolis_N_FeII_adaptive_scale_factor'
p56
(dp57
I0
g4
(g5
(I0
tS'b'
tRp58
(I1
(I0
tg8
I00
S''
tbssS'TEMP'
p59
(dp60
I0
g4
(g5
(I0
tS'b'
tRp61
(I1
(I0
tg8
I00
S''
tbssS'Metropolis_T2.99346893517_adaptive_scale_factor'
p62
(dp63
I0
g4
(g5
(I0
tS'b'
tRp64
(I1
(I0
tg8
I00
S''
tbssS'B_OIa'
p65
(dp66
I0
g4
(g5
(I0
tS'b'
tRp67
(I1
(I0
tg8
I00
S''
tbssS'A_Z_SiII'
p68
(dp69
I0
g4
(g5
(I0
tS'b'
tRp70
(I1
(I0
tg8
I00
S''
tbssS'Metropolis_B_adaptive_scale_factor'
p71
(dp72
I0
g4
(g5
(I0
tS'b'
tRp73
(I1
(I0
tg8
I00
S''
tbssS'B_SiII'
p74
(dp75
I0
g4
(g5
(I0
tS'b'
tRp76
(I1
(I0
tg8
I00
S''
tbssS'B2.99346893517'
p77
(dp78
I0
g4
(g5
(I0
tS'b'
tRp79
(I1
(I0
tg8
I00
S''
tbssS'Metropolis_B2.99346893517_adaptive_scale_factor'
p80
(dp81
I0
g4
(g5
(I0
tS'b'
tRp82
(I1
(I0
tg8
I00
S''
tbssS'Metropolis_N_OI_adaptive_scale_factor'
p83
(dp84
I0
g4
(g5
(I0
tS'b'
tRp85
(I1
(I0
tg8
I00
S''
tbssS'T2.99346893517'
p86
(dp87
I0
g4
(g5
(I0
tS'b'
tRp88
(I1
(I0
tg8
I00
S''
tbssS'Metropolis_B_SiII_adaptive_scale_factor'
p89
(dp90
I0
g4
(g5
(I0
tS'b'
tRp91
(I1
(I0
tg8
I00
S''
tbssS'B_HI'
p92
(dp93
I0
g4
(g5
(I0
tS'b'
tRp94
(I1
(I0
tg8
I00
S''
tbssS'Metropolis_NTOTH2_adaptive_scale_factor'
p95
(dp96
I0
g4
(g5
(I0
tS'b'
tRp97
(I1
(I0
tg8
I00
S''
tbssS'_state_'
p98
(dp99
S'stochastics'
p100
(dp101
g2
g4
(g5
(I0
tS'b'
tRp102
(I1
(tg8
I00
S'\xac\xae`t\xb7t4@'
tbsg12
g4
(g5
(I0
tS'b'
tRp103
(I1
(tg8
I00
S'(k&\xfe\xc6\\3@'
tbsg15
g4
(g5
(I0
tS'b'
tRp104
(I1
(tg8
I00
S'\x00\x00\x00\x00\x00\x000@'
tbsg18
g4
(g5
(I0
tS'b'
tRp105
(I1
(tg8
I00
S'\xe4\xdc\\9\xcf\xc6\x08@'
tbsg21
g4
(g5
(I0
tS'b'
tRp106
(I1
(tg8
I00
S'e\x93B\x08\xd69\xe1\xbf'
tbsg24
g4
(g5
(I0
tS'b'
tRp107
(I1
(tg8
I00
S'\xa00\xe2\xbd\x1e\xf3\x06@'
tbsS'NTOTH2'
p108
g4
(g5
(I0
tS'b'
tRp109
(I1
(tg8
I00
S'4\xfbQ\xde@%2@'
tbsS'B'
g4
(g5
(I0
tS'b'
tRp110
(I1
(tg8
I00
S'333333\x0b@'
tbsg50
g4
(g5
(I0
tS'b'
tRp111
(I1
(tg8
I00
S'\xc2\xdfxS\xb8Zq@'
tbsg53
g4
(g5
(I0
tS'b'
tRp112
(I1
(tg8
I00
S'\xd0\xbf\xeefiI+@'
tbsg59
g4
(g5
(I0
tS'b'
tRp113
(I1
(tg8
I00
S'\xdf\xdd\xc8\x95\x08\x90V@'
tbsg65
g4
(g5
(I0
tS'b'
tRp114
(I1
(tg8
I00
S'\x02\x87\xab}w\xac/@'
tbsg74
g4
(g5
(I0
tS'b'
tRp115
(I1
(tg8
I00
S'_\x9d\xe2\x06\x8f\xee:@'
tbsg77
g4
(g5
(I0
tS'b'
tRp116
(I1
(tg8
I00
S'333333\x0b@'
tbsg86
g4
(g5
(I0
tS'b'
tRp117
(I1
(tg8
I00
S'\xe6\x14\xba\xffK\xd8{@'
tbsg68
g4
(g5
(I0
tS'b'
tRp118
(I1
(tg8
I00
S'\xe6\x8aD\xfa\x8fz\xe8\xbf'
tbsg92
g4
(g5
(I0
tS'b'
tRp119
(I1
(tg8
I00
S'\xda#\x8d"C\xf0\x1e@'
tbsS'N_HI'
p120
g4
(g5
(I0
tS'b'
tRp121
(I1
(tg8
I00
S'\xb8\xadv\x89\x0e-6@'
tbsS'A_Z_HI'
p122
g4
(g5
(I0
tS'b'
tRp123
(I1
(tg8
I00
S'\x8aA\\\xb9\xec\xf7V\xc0'
tbsS'A_Z_OIa'
p124
g4
(g5
(I0
tS'b'
tRp125
(I1
(tg8
I00
S')\xda\xb3\x89mR\t@'
tbsS'A_Z'
p126
g4
(g5
(I0
tS'b'
tRp127
(I1
(tg8
I00
S'\x8dF\x16\x14\xaf\\\x15\xc0'
tbsS'N_OIa'
p128
g4
(g5
(I0
tS'b'
tRp129
(I1
(tg8
I00
S'\x00\x00\x00\x00\x00\x000@'
tbsS'H22.99074164768'
p130
g4
(g5
(I0
tS'b'
tRp131
(I1
(tg8
I00
S'\x08\x8fw\xaa\xd8\xf5\x08@'
tbsS'N_OI'
p132
g4
(g5
(I0
tS'b'
tRp133
(I1
(tg8
I00
S'\x02eX-\xd8\x9d2@'
tbsS'A_Z_OI'
p134
g4
(g5
(I0
tS'b'
tRp135
(I1
(tg8
I00
S'u8\xc1\\:\r\xff\xbf'
tbssS'step_methods'
p136
(dp137
S'Metropolis_N_FeII'
p138
(dp139
S'adaptive_scale_factor'
p140
F1
sS'proposal_distribution'
p141
S'Normal'
p142
sS'proposal_sd'
p143
cnumpy.core.multiarray
scalar
p144
(g8
S'\x00\x00\x00\x00\x00\x000@'
tRp145
sS'accepted'
p146
F0
sS'check_before_accepting'
p147
I01
sS'rejected'
p148
F5
ssS'Metropolis_N_OI'
p149
(dp150
g140
F1
sg141
g142
sg143
g144
(g8
S'\x00\x00\x00\x00\x00\x000@'
tRp151
sg146
F1
sg147
I01
sg148
F4
ssS'Metropolis_T2.99074164768'
p152
(dp153
g140
F1
sg141
g142
sg143
g144
(g8
S'\xe5\xd9^V$x}@'
tRp154
sg146
F2
sg147
I01
sg148
F3
ssS'Metropolis_A_Z'
p155
(dp156
g140
F1
sg141
g142
sg143
g144
(g8
S'0\xd0\xd5AC\xe5\x00@'
tRp157
sg146
F5
sg147
I01
sg148
F0
ssS'Metropolis_B_SiII'
p158
(dp159
g140
F1
sg141
g142
sg143
g144
(g8
S'\x00\x00\x00\x00\x00\x00 @'
tRp160
sg146
F2
sg147
I01
sg148
F3
ssS'Metropolis_TEMP'
p161
(dp162
g140
F1
sg141
g142
sg143
g144
(g8
S'9e\x1e\x93\xff\x8a`@'
tRp163
sg146
F6
sg147
I01
sg148
F0
ssS'Metropolis_A_Z_OI'
p164
(dp165
g140
F1
sg141
g142
sg143
g144
(g8
S'\x00\x00\x00\x00\x00\x00\xf0?'
tRp166
sg146
F4
sg147
I01
sg148
F1
ssS'Metropolis_H22.99074164768'
p167
(dp168
g140
F1
sg141
g142
sg143
g144
(g8
S'\x14\xe9"\x03Y\xdb\x1f@'
tRp169
sg146
F1
sg147
I01
sg148
F4
ssS'Metropolis_B_HI'
p170
(dp171
g140
F1
sg141
g142
sg143
g144
(g8
S'Z*\x8e\x1b\x8e\xd0!@'
tRp172
sg146
F4
sg147
I01
sg148
F1
ssS'Metropolis_A_Z_SiII'
p173
(dp174
g140
F1
sg141
g142
sg143
g144
(g8
S'\x00\x00\x00\x00\x00\x00\xf0?'
tRp175
sg146
F5
sg147
I01
sg148
F0
ssS'Metropolis_T2.99346893517'
p176
(dp177
g140
F1
sg141
g142
sg143
g144
(g8
S'1E#\xd1m\x9a\x80@'
tRp178
sg146
F3
sg147
I01
sg148
F2
ssS'Metropolis_N_HI'
p179
(dp180
g140
F1
sg141
g142
sg143
g144
(g8
S'\xb8\xadv\x89\x0e-6@'
tRp181
sg146
F0
sg147
I01
sg148
F5
ssS'Metropolis_B_FeII'
p182
(dp183
g140
F1
sg141
g142
sg143
g144
(g8
S'\x00\x00\x00\x00\x00\x00 @'
tRp184
sg146
F3
sg147
I01
sg148
F2
ssS'Metropolis_A_Z_OIa'
p185
(dp186
g140
F1
sg141
g142
sg143
g144
(g8
S'\x00\x00\x00\x00\x00\x00\xf0?'
tRp187
sg146
F4
sg147
I01
sg148
F1
ssS'Metropolis_B_OIa'
p188
(dp189
g140
F1
sg141
g142
sg143
g144
(g8
S'\x00\x00\x00\x00\x00\x00 @'
tRp190
sg146
F2
sg147
I01
sg148
F3
ssS'Metropolis_B2.99074164768'
p191
(dp192
g140
F1
sg141
g142
sg143
g144
(g8
S'333333\x0b@'
tRp193
sg146
F1
sg147
I01
sg148
F4
ssS'Metropolis_H22.99346893517'
p194
(dp195
g140
F1
sg141
g142
sg143
g144
(g8
S'\xe13]\xecq93@'
tRp196
sg146
F1
sg147
I01
sg148
F4
ssS'Metropolis_N_SiII'
p197
(dp198
g140
F1
sg141
g142
sg143
g144
(g8
S'\x00\x00\x00\x00\x00\x000@'
tRp199
sg146
F1
sg147
I01
sg148
F4
ssS'Metropolis_NTOTH2'
p200
(dp201
g140
F1
sg141
g142
sg143
g144
(g8
S'\xfa\xd3\x17B\xcbe\x1e@'
tRp202
sg146
F4
sg147
I01
sg148
F1
ssS'Metropolis_N_OIa'
p203
(dp204
g140
F1
sg141
g142
sg143
g144
(g8
S'\x00\x00\x00\x00\x00\x000@'
tRp205
sg146
F0
sg147
I01
sg148
F5
ssS'Metropolis_B_OI'
p206
(dp207
g140
F1
sg141
g142
sg143
g144
(g8
S'\x00\x00\x00\x00\x00\x00 @'
tRp208
sg146
F2
sg147
I01
sg148
F3
ssS'Metropolis_B2.99346893517'
p209
(dp210
g140
F1
sg141
g142
sg143
g144
(g8
S'333333\x0b@'
tRp211
sg146
F0
sg147
I01
sg148
F5
ssS'Metropolis_A_Z_HI'
p212
(dp213
g140
F1
sg141
g142
sg143
g144
(g8
S'8\xdf)\xc5\x17hH@'
tRp214
sg146
F3
sg147
I01
sg148
F2
ssS'Metropolis_B'
p215
(dp216
g140
F1
sg141
g142
sg143
g144
(g8
S'333333\x0b@'
tRp217
sg146
F0
sg147
I01
sg148
F6
ssS'Metropolis_A_Z_FeII'
p218
(dp219
g140
F1
sg141
g142
sg143
g144
(g8
S'\x00\x00\x00\x00\x00\x00\xf0?'
tRp220
sg146
F3
sg147
I01
sg148
F2
sssS'sampler'
p221
(dp222
S'status'
p223
S'ready'
p224
sS'_iter'
p225
g144
(g7
(S'i8'
I0
I1
tRp226
(I3
S'<'
NNNI-1
I-1
I0
tbS'\xe8\x03\x00\x00\x00\x00\x00\x00'
tRp227
sS'_tune_interval'
p228
I1000
sS'_tuned_count'
p229
I0
sS'_tune_throughout'
p230
I01
sS'_burn_till_tuned'
p231
I00
sS'_current_iter'
p232
I5
sS'_burn'
p233
I200
sS'_thin'
p234
I1
sssg120
(dp235
I0
g4
(g5
(I0
tS'b'
tRp236
(I1
(I0
tg8
I00
S''
tbssS'Metropolis_A_Z_SiII_adaptive_scale_factor'
p237
(dp238
I0
g4
(g5
(I0
tS'b'
tRp239
(I1
(I0
tg8
I00
S''
tbssg122
(dp240
I0
g4
(g5
(I0
tS'b'
tRp241
(I1
(I0
tg8
I00
S''
tbssS'Metropolis_B_FeII_adaptive_scale_factor'
p242
(dp243
I0
g4
(g5
(I0
tS'b'
tRp244
(I1
(I0
tg8
I00
S''
tbssg124
(dp245
I0
g4
(g5
(I0
tS'b'
tRp246
(I1
(I0
tg8
I00
S''
tbssg126
(dp247
I0
g4
(g5
(I0
tS'b'
tRp248
(I1
(I0
tg8
I00
S''
tbssg108
(dp249
I0
g4
(g5
(I0
tS'b'
tRp250
(I1
(I0
tg8
I00
S''
tbssS'Metropolis_N_SiII_adaptive_scale_factor'
p251
(dp252
I0
g4
(g5
(I0
tS'b'
tRp253
(I1
(I0
tg8
I00
S''
tbssS'Metropolis_N_HI_adaptive_scale_factor'
p254
(dp255
I0
g4
(g5
(I0
tS'b'
tRp256
(I1
(I0
tg8
I00
S''
tbssS'Metropolis_A_Z_OIa_adaptive_scale_factor'
p257
(dp258
I0
g4
(g5
(I0
tS'b'
tRp259
(I1
(I0
tg8
I00
S''
tbssS'deviance'
p260
(dp261
I0
g4
(g5
(I0
tS'b'
tRp262
(I1
(I0
tg8
I00
S''
tbssS'H2'
p263
(dp264
I0
g4
(g5
(I0
tS'b'
tRp265
(I1
(I0
I1999
tg8
I00
S''
tbssS'Metropolis_H22.99346893517_adaptive_scale_factor'
p266
(dp267
I0
g4
(g5
(I0
tS'b'
tRp268
(I1
(I0
tg8
I00
S''
tbssS'Metropolis_N_OIa_adaptive_scale_factor'
p269
(dp270
I0
g4
(g5
(I0
tS'b'
tRp271
(I1
(I0
tg8
I00
S''
tbssg130
(dp272
I0
g4
(g5
(I0
tS'b'
tRp273
(I1
(I0
tg8
I00
S''
tbssS'Metropolis_B2.99074164768_adaptive_scale_factor'
p274
(dp275
I0
g4
(g5
(I0
tS'b'
tRp276
(I1
(I0
tg8
I00
S''
tbssS'Metropolis_TEMP_adaptive_scale_factor'
p277
(dp278
I0
g4
(g5
(I0
tS'b'
tRp279
(I1
(I0
tg8
I00
S''
tbssS'Metropolis_A_Z_HI_adaptive_scale_factor'
p280
(dp281
I0
g4
(g5
(I0
tS'b'
tRp282
(I1
(I0
tg8
I00
S''
tbssg128
(dp283
I0
g4
(g5
(I0
tS'b'
tRp284
(I1
(I0
tg8
I00
S''
tbssg132
(dp285
I0
g4
(g5
(I0
tS'b'
tRp286
(I1
(I0
tg8
I00
S''
tbssg134
(dp287
I0
g4
(g5
(I0
tS'b'
tRp288
(I1
(I0
tg8
I00
S''
tbss.